ARM GAS  C:\Users\nicol\AppData\Local\Temp\ccglm9UP.s 			page 1


   1              		.syntax unified
   2              		.cpu cortex-m3
   3              		.fpu softvfp
   4              		.eabi_attribute 20, 1
   5              		.eabi_attribute 21, 1
   6              		.eabi_attribute 23, 3
   7              		.eabi_attribute 24, 1
   8              		.eabi_attribute 25, 1
   9              		.eabi_attribute 26, 1
  10              		.eabi_attribute 30, 1
  11              		.eabi_attribute 34, 1
  12              		.eabi_attribute 18, 4
  13              		.thumb
  14              		.syntax unified
  15              		.file	"event_groups.c"
  16              		.text
  17              	.Ltext0:
  18              		.cfi_sections	.debug_frame
  19              		.section	.text.prvTestWaitCondition,"ax",%progbits
  20              		.align	2
  21              		.thumb
  22              		.thumb_func
  23              		.type	prvTestWaitCondition, %function
  24              	prvTestWaitCondition:
  25              	.LFB14:
  26              		.file 1 "FreeRTOS\\src\\event_groups.c"
   1:FreeRTOS\src/event_groups.c **** /*
   2:FreeRTOS\src/event_groups.c ****  * FreeRTOS Kernel V10.1.1
   3:FreeRTOS\src/event_groups.c ****  * Copyright (C) 2018 Amazon.com, Inc. or its affiliates.  All Rights Reserved.
   4:FreeRTOS\src/event_groups.c ****  *
   5:FreeRTOS\src/event_groups.c ****  * Permission is hereby granted, free of charge, to any person obtaining a copy of
   6:FreeRTOS\src/event_groups.c ****  * this software and associated documentation files (the "Software"), to deal in
   7:FreeRTOS\src/event_groups.c ****  * the Software without restriction, including without limitation the rights to
   8:FreeRTOS\src/event_groups.c ****  * use, copy, modify, merge, publish, distribute, sublicense, and/or sell copies of
   9:FreeRTOS\src/event_groups.c ****  * the Software, and to permit persons to whom the Software is furnished to do so,
  10:FreeRTOS\src/event_groups.c ****  * subject to the following conditions:
  11:FreeRTOS\src/event_groups.c ****  *
  12:FreeRTOS\src/event_groups.c ****  * The above copyright notice and this permission notice shall be included in all
  13:FreeRTOS\src/event_groups.c ****  * copies or substantial portions of the Software.
  14:FreeRTOS\src/event_groups.c ****  *
  15:FreeRTOS\src/event_groups.c ****  * THE SOFTWARE IS PROVIDED "AS IS", WITHOUT WARRANTY OF ANY KIND, EXPRESS OR
  16:FreeRTOS\src/event_groups.c ****  * IMPLIED, INCLUDING BUT NOT LIMITED TO THE WARRANTIES OF MERCHANTABILITY, FITNESS
  17:FreeRTOS\src/event_groups.c ****  * FOR A PARTICULAR PURPOSE AND NONINFRINGEMENT. IN NO EVENT SHALL THE AUTHORS OR
  18:FreeRTOS\src/event_groups.c ****  * COPYRIGHT HOLDERS BE LIABLE FOR ANY CLAIM, DAMAGES OR OTHER LIABILITY, WHETHER
  19:FreeRTOS\src/event_groups.c ****  * IN AN ACTION OF CONTRACT, TORT OR OTHERWISE, ARISING FROM, OUT OF OR IN
  20:FreeRTOS\src/event_groups.c ****  * CONNECTION WITH THE SOFTWARE OR THE USE OR OTHER DEALINGS IN THE SOFTWARE.
  21:FreeRTOS\src/event_groups.c ****  *
  22:FreeRTOS\src/event_groups.c ****  * http://www.FreeRTOS.org
  23:FreeRTOS\src/event_groups.c ****  * http://aws.amazon.com/freertos
  24:FreeRTOS\src/event_groups.c ****  *
  25:FreeRTOS\src/event_groups.c ****  * 1 tab == 4 spaces!
  26:FreeRTOS\src/event_groups.c ****  */
  27:FreeRTOS\src/event_groups.c **** 
  28:FreeRTOS\src/event_groups.c **** /* Standard includes. */
  29:FreeRTOS\src/event_groups.c **** #include <stdlib.h>
  30:FreeRTOS\src/event_groups.c **** 
  31:FreeRTOS\src/event_groups.c **** /* Defining MPU_WRAPPERS_INCLUDED_FROM_API_FILE prevents task.h from redefining
ARM GAS  C:\Users\nicol\AppData\Local\Temp\ccglm9UP.s 			page 2


  32:FreeRTOS\src/event_groups.c **** all the API functions to use the MPU wrappers.  That should only be done when
  33:FreeRTOS\src/event_groups.c **** task.h is included from an application file. */
  34:FreeRTOS\src/event_groups.c **** #define MPU_WRAPPERS_INCLUDED_FROM_API_FILE
  35:FreeRTOS\src/event_groups.c **** 
  36:FreeRTOS\src/event_groups.c **** /* FreeRTOS includes. */
  37:FreeRTOS\src/event_groups.c **** #include "FreeRTOS.h"
  38:FreeRTOS\src/event_groups.c **** #include "task.h"
  39:FreeRTOS\src/event_groups.c **** #include "timers.h"
  40:FreeRTOS\src/event_groups.c **** #include "event_groups.h"
  41:FreeRTOS\src/event_groups.c **** 
  42:FreeRTOS\src/event_groups.c **** /* Lint e961, e750 and e9021 are suppressed as a MISRA exception justified
  43:FreeRTOS\src/event_groups.c **** because the MPU ports require MPU_WRAPPERS_INCLUDED_FROM_API_FILE to be defined
  44:FreeRTOS\src/event_groups.c **** for the header files above, but not in this file, in order to generate the
  45:FreeRTOS\src/event_groups.c **** correct privileged Vs unprivileged linkage and placement. */
  46:FreeRTOS\src/event_groups.c **** #undef MPU_WRAPPERS_INCLUDED_FROM_API_FILE /*lint !e961 !e750 !e9021 See comment above. */
  47:FreeRTOS\src/event_groups.c **** 
  48:FreeRTOS\src/event_groups.c **** /* The following bit fields convey control information in a task's event list
  49:FreeRTOS\src/event_groups.c **** item value.  It is important they don't clash with the
  50:FreeRTOS\src/event_groups.c **** taskEVENT_LIST_ITEM_VALUE_IN_USE definition. */
  51:FreeRTOS\src/event_groups.c **** #if configUSE_16_BIT_TICKS == 1
  52:FreeRTOS\src/event_groups.c **** 	#define eventCLEAR_EVENTS_ON_EXIT_BIT	0x0100U
  53:FreeRTOS\src/event_groups.c **** 	#define eventUNBLOCKED_DUE_TO_BIT_SET	0x0200U
  54:FreeRTOS\src/event_groups.c **** 	#define eventWAIT_FOR_ALL_BITS			0x0400U
  55:FreeRTOS\src/event_groups.c **** 	#define eventEVENT_BITS_CONTROL_BYTES	0xff00U
  56:FreeRTOS\src/event_groups.c **** #else
  57:FreeRTOS\src/event_groups.c **** 	#define eventCLEAR_EVENTS_ON_EXIT_BIT	0x01000000UL
  58:FreeRTOS\src/event_groups.c **** 	#define eventUNBLOCKED_DUE_TO_BIT_SET	0x02000000UL
  59:FreeRTOS\src/event_groups.c **** 	#define eventWAIT_FOR_ALL_BITS			0x04000000UL
  60:FreeRTOS\src/event_groups.c **** 	#define eventEVENT_BITS_CONTROL_BYTES	0xff000000UL
  61:FreeRTOS\src/event_groups.c **** #endif
  62:FreeRTOS\src/event_groups.c **** 
  63:FreeRTOS\src/event_groups.c **** typedef struct EventGroupDef_t
  64:FreeRTOS\src/event_groups.c **** {
  65:FreeRTOS\src/event_groups.c **** 	EventBits_t uxEventBits;
  66:FreeRTOS\src/event_groups.c **** 	List_t xTasksWaitingForBits;		/*< List of tasks waiting for a bit to be set. */
  67:FreeRTOS\src/event_groups.c **** 
  68:FreeRTOS\src/event_groups.c **** 	#if( configUSE_TRACE_FACILITY == 1 )
  69:FreeRTOS\src/event_groups.c **** 		UBaseType_t uxEventGroupNumber;
  70:FreeRTOS\src/event_groups.c **** 	#endif
  71:FreeRTOS\src/event_groups.c **** 
  72:FreeRTOS\src/event_groups.c **** 	#if( ( configSUPPORT_STATIC_ALLOCATION == 1 ) && ( configSUPPORT_DYNAMIC_ALLOCATION == 1 ) )
  73:FreeRTOS\src/event_groups.c **** 		uint8_t ucStaticallyAllocated; /*< Set to pdTRUE if the event group is statically allocated to en
  74:FreeRTOS\src/event_groups.c **** 	#endif
  75:FreeRTOS\src/event_groups.c **** } EventGroup_t;
  76:FreeRTOS\src/event_groups.c **** 
  77:FreeRTOS\src/event_groups.c **** /*-----------------------------------------------------------*/
  78:FreeRTOS\src/event_groups.c **** 
  79:FreeRTOS\src/event_groups.c **** /*
  80:FreeRTOS\src/event_groups.c ****  * Test the bits set in uxCurrentEventBits to see if the wait condition is met.
  81:FreeRTOS\src/event_groups.c ****  * The wait condition is defined by xWaitForAllBits.  If xWaitForAllBits is
  82:FreeRTOS\src/event_groups.c ****  * pdTRUE then the wait condition is met if all the bits set in uxBitsToWaitFor
  83:FreeRTOS\src/event_groups.c ****  * are also set in uxCurrentEventBits.  If xWaitForAllBits is pdFALSE then the
  84:FreeRTOS\src/event_groups.c ****  * wait condition is met if any of the bits set in uxBitsToWait for are also set
  85:FreeRTOS\src/event_groups.c ****  * in uxCurrentEventBits.
  86:FreeRTOS\src/event_groups.c ****  */
  87:FreeRTOS\src/event_groups.c **** static BaseType_t prvTestWaitCondition( const EventBits_t uxCurrentEventBits, const EventBits_t uxB
  88:FreeRTOS\src/event_groups.c **** 
ARM GAS  C:\Users\nicol\AppData\Local\Temp\ccglm9UP.s 			page 3


  89:FreeRTOS\src/event_groups.c **** /*-----------------------------------------------------------*/
  90:FreeRTOS\src/event_groups.c **** 
  91:FreeRTOS\src/event_groups.c **** #if( configSUPPORT_STATIC_ALLOCATION == 1 )
  92:FreeRTOS\src/event_groups.c **** 
  93:FreeRTOS\src/event_groups.c **** 	EventGroupHandle_t xEventGroupCreateStatic( StaticEventGroup_t *pxEventGroupBuffer )
  94:FreeRTOS\src/event_groups.c **** 	{
  95:FreeRTOS\src/event_groups.c **** 	EventGroup_t *pxEventBits;
  96:FreeRTOS\src/event_groups.c **** 
  97:FreeRTOS\src/event_groups.c **** 		/* A StaticEventGroup_t object must be provided. */
  98:FreeRTOS\src/event_groups.c **** 		configASSERT( pxEventGroupBuffer );
  99:FreeRTOS\src/event_groups.c **** 
 100:FreeRTOS\src/event_groups.c **** 		#if( configASSERT_DEFINED == 1 )
 101:FreeRTOS\src/event_groups.c **** 		{
 102:FreeRTOS\src/event_groups.c **** 			/* Sanity check that the size of the structure used to declare a
 103:FreeRTOS\src/event_groups.c **** 			variable of type StaticEventGroup_t equals the size of the real
 104:FreeRTOS\src/event_groups.c **** 			event group structure. */
 105:FreeRTOS\src/event_groups.c **** 			volatile size_t xSize = sizeof( StaticEventGroup_t );
 106:FreeRTOS\src/event_groups.c **** 			configASSERT( xSize == sizeof( EventGroup_t ) );
 107:FreeRTOS\src/event_groups.c **** 		} /*lint !e529 xSize is referenced if configASSERT() is defined. */
 108:FreeRTOS\src/event_groups.c **** 		#endif /* configASSERT_DEFINED */
 109:FreeRTOS\src/event_groups.c **** 
 110:FreeRTOS\src/event_groups.c **** 		/* The user has provided a statically allocated event group - use it. */
 111:FreeRTOS\src/event_groups.c **** 		pxEventBits = ( EventGroup_t * ) pxEventGroupBuffer; /*lint !e740 !e9087 EventGroup_t and StaticE
 112:FreeRTOS\src/event_groups.c **** 
 113:FreeRTOS\src/event_groups.c **** 		if( pxEventBits != NULL )
 114:FreeRTOS\src/event_groups.c **** 		{
 115:FreeRTOS\src/event_groups.c **** 			pxEventBits->uxEventBits = 0;
 116:FreeRTOS\src/event_groups.c **** 			vListInitialise( &( pxEventBits->xTasksWaitingForBits ) );
 117:FreeRTOS\src/event_groups.c **** 
 118:FreeRTOS\src/event_groups.c **** 			#if( configSUPPORT_DYNAMIC_ALLOCATION == 1 )
 119:FreeRTOS\src/event_groups.c **** 			{
 120:FreeRTOS\src/event_groups.c **** 				/* Both static and dynamic allocation can be used, so note that
 121:FreeRTOS\src/event_groups.c **** 				this event group was created statically in case the event group
 122:FreeRTOS\src/event_groups.c **** 				is later deleted. */
 123:FreeRTOS\src/event_groups.c **** 				pxEventBits->ucStaticallyAllocated = pdTRUE;
 124:FreeRTOS\src/event_groups.c **** 			}
 125:FreeRTOS\src/event_groups.c **** 			#endif /* configSUPPORT_DYNAMIC_ALLOCATION */
 126:FreeRTOS\src/event_groups.c **** 
 127:FreeRTOS\src/event_groups.c **** 			traceEVENT_GROUP_CREATE( pxEventBits );
 128:FreeRTOS\src/event_groups.c **** 		}
 129:FreeRTOS\src/event_groups.c **** 		else
 130:FreeRTOS\src/event_groups.c **** 		{
 131:FreeRTOS\src/event_groups.c **** 			/* xEventGroupCreateStatic should only ever be called with
 132:FreeRTOS\src/event_groups.c **** 			pxEventGroupBuffer pointing to a pre-allocated (compile time
 133:FreeRTOS\src/event_groups.c **** 			allocated) StaticEventGroup_t variable. */
 134:FreeRTOS\src/event_groups.c **** 			traceEVENT_GROUP_CREATE_FAILED();
 135:FreeRTOS\src/event_groups.c **** 		}
 136:FreeRTOS\src/event_groups.c **** 
 137:FreeRTOS\src/event_groups.c **** 		return pxEventBits;
 138:FreeRTOS\src/event_groups.c **** 	}
 139:FreeRTOS\src/event_groups.c **** 
 140:FreeRTOS\src/event_groups.c **** #endif /* configSUPPORT_STATIC_ALLOCATION */
 141:FreeRTOS\src/event_groups.c **** /*-----------------------------------------------------------*/
 142:FreeRTOS\src/event_groups.c **** 
 143:FreeRTOS\src/event_groups.c **** #if( configSUPPORT_DYNAMIC_ALLOCATION == 1 )
 144:FreeRTOS\src/event_groups.c **** 
 145:FreeRTOS\src/event_groups.c **** 	EventGroupHandle_t xEventGroupCreate( void )
ARM GAS  C:\Users\nicol\AppData\Local\Temp\ccglm9UP.s 			page 4


 146:FreeRTOS\src/event_groups.c **** 	{
 147:FreeRTOS\src/event_groups.c **** 	EventGroup_t *pxEventBits;
 148:FreeRTOS\src/event_groups.c **** 
 149:FreeRTOS\src/event_groups.c **** 		/* Allocate the event group.  Justification for MISRA deviation as
 150:FreeRTOS\src/event_groups.c **** 		follows:  pvPortMalloc() always ensures returned memory blocks are
 151:FreeRTOS\src/event_groups.c **** 		aligned per the requirements of the MCU stack.  In this case
 152:FreeRTOS\src/event_groups.c **** 		pvPortMalloc() must return a pointer that is guaranteed to meet the
 153:FreeRTOS\src/event_groups.c **** 		alignment requirements of the EventGroup_t structure - which (if you
 154:FreeRTOS\src/event_groups.c **** 		follow it through) is the alignment requirements of the TickType_t type
 155:FreeRTOS\src/event_groups.c **** 		(EventBits_t being of TickType_t itself).  Therefore, whenever the
 156:FreeRTOS\src/event_groups.c **** 		stack alignment requirements are greater than or equal to the
 157:FreeRTOS\src/event_groups.c **** 		TickType_t alignment requirements the cast is safe.  In other cases,
 158:FreeRTOS\src/event_groups.c **** 		where the natural word size of the architecture is less than
 159:FreeRTOS\src/event_groups.c **** 		sizeof( TickType_t ), the TickType_t variables will be accessed in two
 160:FreeRTOS\src/event_groups.c **** 		or more reads operations, and the alignment requirements is only that
 161:FreeRTOS\src/event_groups.c **** 		of each individual read. */
 162:FreeRTOS\src/event_groups.c **** 		pxEventBits = ( EventGroup_t * ) pvPortMalloc( sizeof( EventGroup_t ) ); /*lint !e9087 !e9079 see
 163:FreeRTOS\src/event_groups.c **** 
 164:FreeRTOS\src/event_groups.c **** 		if( pxEventBits != NULL )
 165:FreeRTOS\src/event_groups.c **** 		{
 166:FreeRTOS\src/event_groups.c **** 			pxEventBits->uxEventBits = 0;
 167:FreeRTOS\src/event_groups.c **** 			vListInitialise( &( pxEventBits->xTasksWaitingForBits ) );
 168:FreeRTOS\src/event_groups.c **** 
 169:FreeRTOS\src/event_groups.c **** 			#if( configSUPPORT_STATIC_ALLOCATION == 1 )
 170:FreeRTOS\src/event_groups.c **** 			{
 171:FreeRTOS\src/event_groups.c **** 				/* Both static and dynamic allocation can be used, so note this
 172:FreeRTOS\src/event_groups.c **** 				event group was allocated statically in case the event group is
 173:FreeRTOS\src/event_groups.c **** 				later deleted. */
 174:FreeRTOS\src/event_groups.c **** 				pxEventBits->ucStaticallyAllocated = pdFALSE;
 175:FreeRTOS\src/event_groups.c **** 			}
 176:FreeRTOS\src/event_groups.c **** 			#endif /* configSUPPORT_STATIC_ALLOCATION */
 177:FreeRTOS\src/event_groups.c **** 
 178:FreeRTOS\src/event_groups.c **** 			traceEVENT_GROUP_CREATE( pxEventBits );
 179:FreeRTOS\src/event_groups.c **** 		}
 180:FreeRTOS\src/event_groups.c **** 		else
 181:FreeRTOS\src/event_groups.c **** 		{
 182:FreeRTOS\src/event_groups.c **** 			traceEVENT_GROUP_CREATE_FAILED(); /*lint !e9063 Else branch only exists to allow tracing and doe
 183:FreeRTOS\src/event_groups.c **** 		}
 184:FreeRTOS\src/event_groups.c **** 
 185:FreeRTOS\src/event_groups.c **** 		return pxEventBits;
 186:FreeRTOS\src/event_groups.c **** 	}
 187:FreeRTOS\src/event_groups.c **** 
 188:FreeRTOS\src/event_groups.c **** #endif /* configSUPPORT_DYNAMIC_ALLOCATION */
 189:FreeRTOS\src/event_groups.c **** /*-----------------------------------------------------------*/
 190:FreeRTOS\src/event_groups.c **** 
 191:FreeRTOS\src/event_groups.c **** EventBits_t xEventGroupSync( EventGroupHandle_t xEventGroup, const EventBits_t uxBitsToSet, const E
 192:FreeRTOS\src/event_groups.c **** {
 193:FreeRTOS\src/event_groups.c **** EventBits_t uxOriginalBitValue, uxReturn;
 194:FreeRTOS\src/event_groups.c **** EventGroup_t *pxEventBits = xEventGroup;
 195:FreeRTOS\src/event_groups.c **** BaseType_t xAlreadyYielded;
 196:FreeRTOS\src/event_groups.c **** BaseType_t xTimeoutOccurred = pdFALSE;
 197:FreeRTOS\src/event_groups.c **** 
 198:FreeRTOS\src/event_groups.c **** 	configASSERT( ( uxBitsToWaitFor & eventEVENT_BITS_CONTROL_BYTES ) == 0 );
 199:FreeRTOS\src/event_groups.c **** 	configASSERT( uxBitsToWaitFor != 0 );
 200:FreeRTOS\src/event_groups.c **** 	#if ( ( INCLUDE_xTaskGetSchedulerState == 1 ) || ( configUSE_TIMERS == 1 ) )
 201:FreeRTOS\src/event_groups.c **** 	{
 202:FreeRTOS\src/event_groups.c **** 		configASSERT( !( ( xTaskGetSchedulerState() == taskSCHEDULER_SUSPENDED ) && ( xTicksToWait != 0 )
ARM GAS  C:\Users\nicol\AppData\Local\Temp\ccglm9UP.s 			page 5


 203:FreeRTOS\src/event_groups.c **** 	}
 204:FreeRTOS\src/event_groups.c **** 	#endif
 205:FreeRTOS\src/event_groups.c **** 
 206:FreeRTOS\src/event_groups.c **** 	vTaskSuspendAll();
 207:FreeRTOS\src/event_groups.c **** 	{
 208:FreeRTOS\src/event_groups.c **** 		uxOriginalBitValue = pxEventBits->uxEventBits;
 209:FreeRTOS\src/event_groups.c **** 
 210:FreeRTOS\src/event_groups.c **** 		( void ) xEventGroupSetBits( xEventGroup, uxBitsToSet );
 211:FreeRTOS\src/event_groups.c **** 
 212:FreeRTOS\src/event_groups.c **** 		if( ( ( uxOriginalBitValue | uxBitsToSet ) & uxBitsToWaitFor ) == uxBitsToWaitFor )
 213:FreeRTOS\src/event_groups.c **** 		{
 214:FreeRTOS\src/event_groups.c **** 			/* All the rendezvous bits are now set - no need to block. */
 215:FreeRTOS\src/event_groups.c **** 			uxReturn = ( uxOriginalBitValue | uxBitsToSet );
 216:FreeRTOS\src/event_groups.c **** 
 217:FreeRTOS\src/event_groups.c **** 			/* Rendezvous always clear the bits.  They will have been cleared
 218:FreeRTOS\src/event_groups.c **** 			already unless this is the only task in the rendezvous. */
 219:FreeRTOS\src/event_groups.c **** 			pxEventBits->uxEventBits &= ~uxBitsToWaitFor;
 220:FreeRTOS\src/event_groups.c **** 
 221:FreeRTOS\src/event_groups.c **** 			xTicksToWait = 0;
 222:FreeRTOS\src/event_groups.c **** 		}
 223:FreeRTOS\src/event_groups.c **** 		else
 224:FreeRTOS\src/event_groups.c **** 		{
 225:FreeRTOS\src/event_groups.c **** 			if( xTicksToWait != ( TickType_t ) 0 )
 226:FreeRTOS\src/event_groups.c **** 			{
 227:FreeRTOS\src/event_groups.c **** 				traceEVENT_GROUP_SYNC_BLOCK( xEventGroup, uxBitsToSet, uxBitsToWaitFor );
 228:FreeRTOS\src/event_groups.c **** 
 229:FreeRTOS\src/event_groups.c **** 				/* Store the bits that the calling task is waiting for in the
 230:FreeRTOS\src/event_groups.c **** 				task's event list item so the kernel knows when a match is
 231:FreeRTOS\src/event_groups.c **** 				found.  Then enter the blocked state. */
 232:FreeRTOS\src/event_groups.c **** 				vTaskPlaceOnUnorderedEventList( &( pxEventBits->xTasksWaitingForBits ), ( uxBitsToWaitFor | eve
 233:FreeRTOS\src/event_groups.c **** 
 234:FreeRTOS\src/event_groups.c **** 				/* This assignment is obsolete as uxReturn will get set after
 235:FreeRTOS\src/event_groups.c **** 				the task unblocks, but some compilers mistakenly generate a
 236:FreeRTOS\src/event_groups.c **** 				warning about uxReturn being returned without being set if the
 237:FreeRTOS\src/event_groups.c **** 				assignment is omitted. */
 238:FreeRTOS\src/event_groups.c **** 				uxReturn = 0;
 239:FreeRTOS\src/event_groups.c **** 			}
 240:FreeRTOS\src/event_groups.c **** 			else
 241:FreeRTOS\src/event_groups.c **** 			{
 242:FreeRTOS\src/event_groups.c **** 				/* The rendezvous bits were not set, but no block time was
 243:FreeRTOS\src/event_groups.c **** 				specified - just return the current event bit value. */
 244:FreeRTOS\src/event_groups.c **** 				uxReturn = pxEventBits->uxEventBits;
 245:FreeRTOS\src/event_groups.c **** 				xTimeoutOccurred = pdTRUE;
 246:FreeRTOS\src/event_groups.c **** 			}
 247:FreeRTOS\src/event_groups.c **** 		}
 248:FreeRTOS\src/event_groups.c **** 	}
 249:FreeRTOS\src/event_groups.c **** 	xAlreadyYielded = xTaskResumeAll();
 250:FreeRTOS\src/event_groups.c **** 
 251:FreeRTOS\src/event_groups.c **** 	if( xTicksToWait != ( TickType_t ) 0 )
 252:FreeRTOS\src/event_groups.c **** 	{
 253:FreeRTOS\src/event_groups.c **** 		if( xAlreadyYielded == pdFALSE )
 254:FreeRTOS\src/event_groups.c **** 		{
 255:FreeRTOS\src/event_groups.c **** 			portYIELD_WITHIN_API();
 256:FreeRTOS\src/event_groups.c **** 		}
 257:FreeRTOS\src/event_groups.c **** 		else
 258:FreeRTOS\src/event_groups.c **** 		{
 259:FreeRTOS\src/event_groups.c **** 			mtCOVERAGE_TEST_MARKER();
ARM GAS  C:\Users\nicol\AppData\Local\Temp\ccglm9UP.s 			page 6


 260:FreeRTOS\src/event_groups.c **** 		}
 261:FreeRTOS\src/event_groups.c **** 
 262:FreeRTOS\src/event_groups.c **** 		/* The task blocked to wait for its required bits to be set - at this
 263:FreeRTOS\src/event_groups.c **** 		point either the required bits were set or the block time expired.  If
 264:FreeRTOS\src/event_groups.c **** 		the required bits were set they will have been stored in the task's
 265:FreeRTOS\src/event_groups.c **** 		event list item, and they should now be retrieved then cleared. */
 266:FreeRTOS\src/event_groups.c **** 		uxReturn = uxTaskResetEventItemValue();
 267:FreeRTOS\src/event_groups.c **** 
 268:FreeRTOS\src/event_groups.c **** 		if( ( uxReturn & eventUNBLOCKED_DUE_TO_BIT_SET ) == ( EventBits_t ) 0 )
 269:FreeRTOS\src/event_groups.c **** 		{
 270:FreeRTOS\src/event_groups.c **** 			/* The task timed out, just return the current event bit value. */
 271:FreeRTOS\src/event_groups.c **** 			taskENTER_CRITICAL();
 272:FreeRTOS\src/event_groups.c **** 			{
 273:FreeRTOS\src/event_groups.c **** 				uxReturn = pxEventBits->uxEventBits;
 274:FreeRTOS\src/event_groups.c **** 
 275:FreeRTOS\src/event_groups.c **** 				/* Although the task got here because it timed out before the
 276:FreeRTOS\src/event_groups.c **** 				bits it was waiting for were set, it is possible that since it
 277:FreeRTOS\src/event_groups.c **** 				unblocked another task has set the bits.  If this is the case
 278:FreeRTOS\src/event_groups.c **** 				then it needs to clear the bits before exiting. */
 279:FreeRTOS\src/event_groups.c **** 				if( ( uxReturn & uxBitsToWaitFor ) == uxBitsToWaitFor )
 280:FreeRTOS\src/event_groups.c **** 				{
 281:FreeRTOS\src/event_groups.c **** 					pxEventBits->uxEventBits &= ~uxBitsToWaitFor;
 282:FreeRTOS\src/event_groups.c **** 				}
 283:FreeRTOS\src/event_groups.c **** 				else
 284:FreeRTOS\src/event_groups.c **** 				{
 285:FreeRTOS\src/event_groups.c **** 					mtCOVERAGE_TEST_MARKER();
 286:FreeRTOS\src/event_groups.c **** 				}
 287:FreeRTOS\src/event_groups.c **** 			}
 288:FreeRTOS\src/event_groups.c **** 			taskEXIT_CRITICAL();
 289:FreeRTOS\src/event_groups.c **** 
 290:FreeRTOS\src/event_groups.c **** 			xTimeoutOccurred = pdTRUE;
 291:FreeRTOS\src/event_groups.c **** 		}
 292:FreeRTOS\src/event_groups.c **** 		else
 293:FreeRTOS\src/event_groups.c **** 		{
 294:FreeRTOS\src/event_groups.c **** 			/* The task unblocked because the bits were set. */
 295:FreeRTOS\src/event_groups.c **** 		}
 296:FreeRTOS\src/event_groups.c **** 
 297:FreeRTOS\src/event_groups.c **** 		/* Control bits might be set as the task had blocked should not be
 298:FreeRTOS\src/event_groups.c **** 		returned. */
 299:FreeRTOS\src/event_groups.c **** 		uxReturn &= ~eventEVENT_BITS_CONTROL_BYTES;
 300:FreeRTOS\src/event_groups.c **** 	}
 301:FreeRTOS\src/event_groups.c **** 
 302:FreeRTOS\src/event_groups.c **** 	traceEVENT_GROUP_SYNC_END( xEventGroup, uxBitsToSet, uxBitsToWaitFor, xTimeoutOccurred );
 303:FreeRTOS\src/event_groups.c **** 
 304:FreeRTOS\src/event_groups.c **** 	/* Prevent compiler warnings when trace macros are not used. */
 305:FreeRTOS\src/event_groups.c **** 	( void ) xTimeoutOccurred;
 306:FreeRTOS\src/event_groups.c **** 
 307:FreeRTOS\src/event_groups.c **** 	return uxReturn;
 308:FreeRTOS\src/event_groups.c **** }
 309:FreeRTOS\src/event_groups.c **** /*-----------------------------------------------------------*/
 310:FreeRTOS\src/event_groups.c **** 
 311:FreeRTOS\src/event_groups.c **** EventBits_t xEventGroupWaitBits( EventGroupHandle_t xEventGroup, const EventBits_t uxBitsToWaitFor,
 312:FreeRTOS\src/event_groups.c **** {
 313:FreeRTOS\src/event_groups.c **** EventGroup_t *pxEventBits = xEventGroup;
 314:FreeRTOS\src/event_groups.c **** EventBits_t uxReturn, uxControlBits = 0;
 315:FreeRTOS\src/event_groups.c **** BaseType_t xWaitConditionMet, xAlreadyYielded;
 316:FreeRTOS\src/event_groups.c **** BaseType_t xTimeoutOccurred = pdFALSE;
ARM GAS  C:\Users\nicol\AppData\Local\Temp\ccglm9UP.s 			page 7


 317:FreeRTOS\src/event_groups.c **** 
 318:FreeRTOS\src/event_groups.c **** 	/* Check the user is not attempting to wait on the bits used by the kernel
 319:FreeRTOS\src/event_groups.c **** 	itself, and that at least one bit is being requested. */
 320:FreeRTOS\src/event_groups.c **** 	configASSERT( xEventGroup );
 321:FreeRTOS\src/event_groups.c **** 	configASSERT( ( uxBitsToWaitFor & eventEVENT_BITS_CONTROL_BYTES ) == 0 );
 322:FreeRTOS\src/event_groups.c **** 	configASSERT( uxBitsToWaitFor != 0 );
 323:FreeRTOS\src/event_groups.c **** 	#if ( ( INCLUDE_xTaskGetSchedulerState == 1 ) || ( configUSE_TIMERS == 1 ) )
 324:FreeRTOS\src/event_groups.c **** 	{
 325:FreeRTOS\src/event_groups.c **** 		configASSERT( !( ( xTaskGetSchedulerState() == taskSCHEDULER_SUSPENDED ) && ( xTicksToWait != 0 )
 326:FreeRTOS\src/event_groups.c **** 	}
 327:FreeRTOS\src/event_groups.c **** 	#endif
 328:FreeRTOS\src/event_groups.c **** 
 329:FreeRTOS\src/event_groups.c **** 	vTaskSuspendAll();
 330:FreeRTOS\src/event_groups.c **** 	{
 331:FreeRTOS\src/event_groups.c **** 		const EventBits_t uxCurrentEventBits = pxEventBits->uxEventBits;
 332:FreeRTOS\src/event_groups.c **** 
 333:FreeRTOS\src/event_groups.c **** 		/* Check to see if the wait condition is already met or not. */
 334:FreeRTOS\src/event_groups.c **** 		xWaitConditionMet = prvTestWaitCondition( uxCurrentEventBits, uxBitsToWaitFor, xWaitForAllBits );
 335:FreeRTOS\src/event_groups.c **** 
 336:FreeRTOS\src/event_groups.c **** 		if( xWaitConditionMet != pdFALSE )
 337:FreeRTOS\src/event_groups.c **** 		{
 338:FreeRTOS\src/event_groups.c **** 			/* The wait condition has already been met so there is no need to
 339:FreeRTOS\src/event_groups.c **** 			block. */
 340:FreeRTOS\src/event_groups.c **** 			uxReturn = uxCurrentEventBits;
 341:FreeRTOS\src/event_groups.c **** 			xTicksToWait = ( TickType_t ) 0;
 342:FreeRTOS\src/event_groups.c **** 
 343:FreeRTOS\src/event_groups.c **** 			/* Clear the wait bits if requested to do so. */
 344:FreeRTOS\src/event_groups.c **** 			if( xClearOnExit != pdFALSE )
 345:FreeRTOS\src/event_groups.c **** 			{
 346:FreeRTOS\src/event_groups.c **** 				pxEventBits->uxEventBits &= ~uxBitsToWaitFor;
 347:FreeRTOS\src/event_groups.c **** 			}
 348:FreeRTOS\src/event_groups.c **** 			else
 349:FreeRTOS\src/event_groups.c **** 			{
 350:FreeRTOS\src/event_groups.c **** 				mtCOVERAGE_TEST_MARKER();
 351:FreeRTOS\src/event_groups.c **** 			}
 352:FreeRTOS\src/event_groups.c **** 		}
 353:FreeRTOS\src/event_groups.c **** 		else if( xTicksToWait == ( TickType_t ) 0 )
 354:FreeRTOS\src/event_groups.c **** 		{
 355:FreeRTOS\src/event_groups.c **** 			/* The wait condition has not been met, but no block time was
 356:FreeRTOS\src/event_groups.c **** 			specified, so just return the current value. */
 357:FreeRTOS\src/event_groups.c **** 			uxReturn = uxCurrentEventBits;
 358:FreeRTOS\src/event_groups.c **** 			xTimeoutOccurred = pdTRUE;
 359:FreeRTOS\src/event_groups.c **** 		}
 360:FreeRTOS\src/event_groups.c **** 		else
 361:FreeRTOS\src/event_groups.c **** 		{
 362:FreeRTOS\src/event_groups.c **** 			/* The task is going to block to wait for its required bits to be
 363:FreeRTOS\src/event_groups.c **** 			set.  uxControlBits are used to remember the specified behaviour of
 364:FreeRTOS\src/event_groups.c **** 			this call to xEventGroupWaitBits() - for use when the event bits
 365:FreeRTOS\src/event_groups.c **** 			unblock the task. */
 366:FreeRTOS\src/event_groups.c **** 			if( xClearOnExit != pdFALSE )
 367:FreeRTOS\src/event_groups.c **** 			{
 368:FreeRTOS\src/event_groups.c **** 				uxControlBits |= eventCLEAR_EVENTS_ON_EXIT_BIT;
 369:FreeRTOS\src/event_groups.c **** 			}
 370:FreeRTOS\src/event_groups.c **** 			else
 371:FreeRTOS\src/event_groups.c **** 			{
 372:FreeRTOS\src/event_groups.c **** 				mtCOVERAGE_TEST_MARKER();
 373:FreeRTOS\src/event_groups.c **** 			}
ARM GAS  C:\Users\nicol\AppData\Local\Temp\ccglm9UP.s 			page 8


 374:FreeRTOS\src/event_groups.c **** 
 375:FreeRTOS\src/event_groups.c **** 			if( xWaitForAllBits != pdFALSE )
 376:FreeRTOS\src/event_groups.c **** 			{
 377:FreeRTOS\src/event_groups.c **** 				uxControlBits |= eventWAIT_FOR_ALL_BITS;
 378:FreeRTOS\src/event_groups.c **** 			}
 379:FreeRTOS\src/event_groups.c **** 			else
 380:FreeRTOS\src/event_groups.c **** 			{
 381:FreeRTOS\src/event_groups.c **** 				mtCOVERAGE_TEST_MARKER();
 382:FreeRTOS\src/event_groups.c **** 			}
 383:FreeRTOS\src/event_groups.c **** 
 384:FreeRTOS\src/event_groups.c **** 			/* Store the bits that the calling task is waiting for in the
 385:FreeRTOS\src/event_groups.c **** 			task's event list item so the kernel knows when a match is
 386:FreeRTOS\src/event_groups.c **** 			found.  Then enter the blocked state. */
 387:FreeRTOS\src/event_groups.c **** 			vTaskPlaceOnUnorderedEventList( &( pxEventBits->xTasksWaitingForBits ), ( uxBitsToWaitFor | uxCo
 388:FreeRTOS\src/event_groups.c **** 
 389:FreeRTOS\src/event_groups.c **** 			/* This is obsolete as it will get set after the task unblocks, but
 390:FreeRTOS\src/event_groups.c **** 			some compilers mistakenly generate a warning about the variable
 391:FreeRTOS\src/event_groups.c **** 			being returned without being set if it is not done. */
 392:FreeRTOS\src/event_groups.c **** 			uxReturn = 0;
 393:FreeRTOS\src/event_groups.c **** 
 394:FreeRTOS\src/event_groups.c **** 			traceEVENT_GROUP_WAIT_BITS_BLOCK( xEventGroup, uxBitsToWaitFor );
 395:FreeRTOS\src/event_groups.c **** 		}
 396:FreeRTOS\src/event_groups.c **** 	}
 397:FreeRTOS\src/event_groups.c **** 	xAlreadyYielded = xTaskResumeAll();
 398:FreeRTOS\src/event_groups.c **** 
 399:FreeRTOS\src/event_groups.c **** 	if( xTicksToWait != ( TickType_t ) 0 )
 400:FreeRTOS\src/event_groups.c **** 	{
 401:FreeRTOS\src/event_groups.c **** 		if( xAlreadyYielded == pdFALSE )
 402:FreeRTOS\src/event_groups.c **** 		{
 403:FreeRTOS\src/event_groups.c **** 			portYIELD_WITHIN_API();
 404:FreeRTOS\src/event_groups.c **** 		}
 405:FreeRTOS\src/event_groups.c **** 		else
 406:FreeRTOS\src/event_groups.c **** 		{
 407:FreeRTOS\src/event_groups.c **** 			mtCOVERAGE_TEST_MARKER();
 408:FreeRTOS\src/event_groups.c **** 		}
 409:FreeRTOS\src/event_groups.c **** 
 410:FreeRTOS\src/event_groups.c **** 		/* The task blocked to wait for its required bits to be set - at this
 411:FreeRTOS\src/event_groups.c **** 		point either the required bits were set or the block time expired.  If
 412:FreeRTOS\src/event_groups.c **** 		the required bits were set they will have been stored in the task's
 413:FreeRTOS\src/event_groups.c **** 		event list item, and they should now be retrieved then cleared. */
 414:FreeRTOS\src/event_groups.c **** 		uxReturn = uxTaskResetEventItemValue();
 415:FreeRTOS\src/event_groups.c **** 
 416:FreeRTOS\src/event_groups.c **** 		if( ( uxReturn & eventUNBLOCKED_DUE_TO_BIT_SET ) == ( EventBits_t ) 0 )
 417:FreeRTOS\src/event_groups.c **** 		{
 418:FreeRTOS\src/event_groups.c **** 			taskENTER_CRITICAL();
 419:FreeRTOS\src/event_groups.c **** 			{
 420:FreeRTOS\src/event_groups.c **** 				/* The task timed out, just return the current event bit value. */
 421:FreeRTOS\src/event_groups.c **** 				uxReturn = pxEventBits->uxEventBits;
 422:FreeRTOS\src/event_groups.c **** 
 423:FreeRTOS\src/event_groups.c **** 				/* It is possible that the event bits were updated between this
 424:FreeRTOS\src/event_groups.c **** 				task leaving the Blocked state and running again. */
 425:FreeRTOS\src/event_groups.c **** 				if( prvTestWaitCondition( uxReturn, uxBitsToWaitFor, xWaitForAllBits ) != pdFALSE )
 426:FreeRTOS\src/event_groups.c **** 				{
 427:FreeRTOS\src/event_groups.c **** 					if( xClearOnExit != pdFALSE )
 428:FreeRTOS\src/event_groups.c **** 					{
 429:FreeRTOS\src/event_groups.c **** 						pxEventBits->uxEventBits &= ~uxBitsToWaitFor;
 430:FreeRTOS\src/event_groups.c **** 					}
ARM GAS  C:\Users\nicol\AppData\Local\Temp\ccglm9UP.s 			page 9


 431:FreeRTOS\src/event_groups.c **** 					else
 432:FreeRTOS\src/event_groups.c **** 					{
 433:FreeRTOS\src/event_groups.c **** 						mtCOVERAGE_TEST_MARKER();
 434:FreeRTOS\src/event_groups.c **** 					}
 435:FreeRTOS\src/event_groups.c **** 				}
 436:FreeRTOS\src/event_groups.c **** 				else
 437:FreeRTOS\src/event_groups.c **** 				{
 438:FreeRTOS\src/event_groups.c **** 					mtCOVERAGE_TEST_MARKER();
 439:FreeRTOS\src/event_groups.c **** 				}
 440:FreeRTOS\src/event_groups.c **** 				xTimeoutOccurred = pdTRUE;
 441:FreeRTOS\src/event_groups.c **** 			}
 442:FreeRTOS\src/event_groups.c **** 			taskEXIT_CRITICAL();
 443:FreeRTOS\src/event_groups.c **** 		}
 444:FreeRTOS\src/event_groups.c **** 		else
 445:FreeRTOS\src/event_groups.c **** 		{
 446:FreeRTOS\src/event_groups.c **** 			/* The task unblocked because the bits were set. */
 447:FreeRTOS\src/event_groups.c **** 		}
 448:FreeRTOS\src/event_groups.c **** 
 449:FreeRTOS\src/event_groups.c **** 		/* The task blocked so control bits may have been set. */
 450:FreeRTOS\src/event_groups.c **** 		uxReturn &= ~eventEVENT_BITS_CONTROL_BYTES;
 451:FreeRTOS\src/event_groups.c **** 	}
 452:FreeRTOS\src/event_groups.c **** 	traceEVENT_GROUP_WAIT_BITS_END( xEventGroup, uxBitsToWaitFor, xTimeoutOccurred );
 453:FreeRTOS\src/event_groups.c **** 
 454:FreeRTOS\src/event_groups.c **** 	/* Prevent compiler warnings when trace macros are not used. */
 455:FreeRTOS\src/event_groups.c **** 	( void ) xTimeoutOccurred;
 456:FreeRTOS\src/event_groups.c **** 
 457:FreeRTOS\src/event_groups.c **** 	return uxReturn;
 458:FreeRTOS\src/event_groups.c **** }
 459:FreeRTOS\src/event_groups.c **** /*-----------------------------------------------------------*/
 460:FreeRTOS\src/event_groups.c **** 
 461:FreeRTOS\src/event_groups.c **** EventBits_t xEventGroupClearBits( EventGroupHandle_t xEventGroup, const EventBits_t uxBitsToClear )
 462:FreeRTOS\src/event_groups.c **** {
 463:FreeRTOS\src/event_groups.c **** EventGroup_t *pxEventBits = xEventGroup;
 464:FreeRTOS\src/event_groups.c **** EventBits_t uxReturn;
 465:FreeRTOS\src/event_groups.c **** 
 466:FreeRTOS\src/event_groups.c **** 	/* Check the user is not attempting to clear the bits used by the kernel
 467:FreeRTOS\src/event_groups.c **** 	itself. */
 468:FreeRTOS\src/event_groups.c **** 	configASSERT( xEventGroup );
 469:FreeRTOS\src/event_groups.c **** 	configASSERT( ( uxBitsToClear & eventEVENT_BITS_CONTROL_BYTES ) == 0 );
 470:FreeRTOS\src/event_groups.c **** 
 471:FreeRTOS\src/event_groups.c **** 	taskENTER_CRITICAL();
 472:FreeRTOS\src/event_groups.c **** 	{
 473:FreeRTOS\src/event_groups.c **** 		traceEVENT_GROUP_CLEAR_BITS( xEventGroup, uxBitsToClear );
 474:FreeRTOS\src/event_groups.c **** 
 475:FreeRTOS\src/event_groups.c **** 		/* The value returned is the event group value prior to the bits being
 476:FreeRTOS\src/event_groups.c **** 		cleared. */
 477:FreeRTOS\src/event_groups.c **** 		uxReturn = pxEventBits->uxEventBits;
 478:FreeRTOS\src/event_groups.c **** 
 479:FreeRTOS\src/event_groups.c **** 		/* Clear the bits. */
 480:FreeRTOS\src/event_groups.c **** 		pxEventBits->uxEventBits &= ~uxBitsToClear;
 481:FreeRTOS\src/event_groups.c **** 	}
 482:FreeRTOS\src/event_groups.c **** 	taskEXIT_CRITICAL();
 483:FreeRTOS\src/event_groups.c **** 
 484:FreeRTOS\src/event_groups.c **** 	return uxReturn;
 485:FreeRTOS\src/event_groups.c **** }
 486:FreeRTOS\src/event_groups.c **** /*-----------------------------------------------------------*/
 487:FreeRTOS\src/event_groups.c **** 
ARM GAS  C:\Users\nicol\AppData\Local\Temp\ccglm9UP.s 			page 10


 488:FreeRTOS\src/event_groups.c **** #if ( ( configUSE_TRACE_FACILITY == 1 ) && ( INCLUDE_xTimerPendFunctionCall == 1 ) && ( configUSE_T
 489:FreeRTOS\src/event_groups.c **** 
 490:FreeRTOS\src/event_groups.c **** 	BaseType_t xEventGroupClearBitsFromISR( EventGroupHandle_t xEventGroup, const EventBits_t uxBitsTo
 491:FreeRTOS\src/event_groups.c **** 	{
 492:FreeRTOS\src/event_groups.c **** 		BaseType_t xReturn;
 493:FreeRTOS\src/event_groups.c **** 
 494:FreeRTOS\src/event_groups.c **** 		traceEVENT_GROUP_CLEAR_BITS_FROM_ISR( xEventGroup, uxBitsToClear );
 495:FreeRTOS\src/event_groups.c **** 		xReturn = xTimerPendFunctionCallFromISR( vEventGroupClearBitsCallback, ( void * ) xEventGroup, ( 
 496:FreeRTOS\src/event_groups.c **** 
 497:FreeRTOS\src/event_groups.c **** 		return xReturn;
 498:FreeRTOS\src/event_groups.c **** 	}
 499:FreeRTOS\src/event_groups.c **** 
 500:FreeRTOS\src/event_groups.c **** #endif
 501:FreeRTOS\src/event_groups.c **** /*-----------------------------------------------------------*/
 502:FreeRTOS\src/event_groups.c **** 
 503:FreeRTOS\src/event_groups.c **** EventBits_t xEventGroupGetBitsFromISR( EventGroupHandle_t xEventGroup )
 504:FreeRTOS\src/event_groups.c **** {
 505:FreeRTOS\src/event_groups.c **** UBaseType_t uxSavedInterruptStatus;
 506:FreeRTOS\src/event_groups.c **** EventGroup_t const * const pxEventBits = xEventGroup;
 507:FreeRTOS\src/event_groups.c **** EventBits_t uxReturn;
 508:FreeRTOS\src/event_groups.c **** 
 509:FreeRTOS\src/event_groups.c **** 	uxSavedInterruptStatus = portSET_INTERRUPT_MASK_FROM_ISR();
 510:FreeRTOS\src/event_groups.c **** 	{
 511:FreeRTOS\src/event_groups.c **** 		uxReturn = pxEventBits->uxEventBits;
 512:FreeRTOS\src/event_groups.c **** 	}
 513:FreeRTOS\src/event_groups.c **** 	portCLEAR_INTERRUPT_MASK_FROM_ISR( uxSavedInterruptStatus );
 514:FreeRTOS\src/event_groups.c **** 
 515:FreeRTOS\src/event_groups.c **** 	return uxReturn;
 516:FreeRTOS\src/event_groups.c **** } /*lint !e818 EventGroupHandle_t is a typedef used in other functions to so can't be pointer to co
 517:FreeRTOS\src/event_groups.c **** /*-----------------------------------------------------------*/
 518:FreeRTOS\src/event_groups.c **** 
 519:FreeRTOS\src/event_groups.c **** EventBits_t xEventGroupSetBits( EventGroupHandle_t xEventGroup, const EventBits_t uxBitsToSet )
 520:FreeRTOS\src/event_groups.c **** {
 521:FreeRTOS\src/event_groups.c **** ListItem_t *pxListItem, *pxNext;
 522:FreeRTOS\src/event_groups.c **** ListItem_t const *pxListEnd;
 523:FreeRTOS\src/event_groups.c **** List_t const * pxList;
 524:FreeRTOS\src/event_groups.c **** EventBits_t uxBitsToClear = 0, uxBitsWaitedFor, uxControlBits;
 525:FreeRTOS\src/event_groups.c **** EventGroup_t *pxEventBits = xEventGroup;
 526:FreeRTOS\src/event_groups.c **** BaseType_t xMatchFound = pdFALSE;
 527:FreeRTOS\src/event_groups.c **** 
 528:FreeRTOS\src/event_groups.c **** 	/* Check the user is not attempting to set the bits used by the kernel
 529:FreeRTOS\src/event_groups.c **** 	itself. */
 530:FreeRTOS\src/event_groups.c **** 	configASSERT( xEventGroup );
 531:FreeRTOS\src/event_groups.c **** 	configASSERT( ( uxBitsToSet & eventEVENT_BITS_CONTROL_BYTES ) == 0 );
 532:FreeRTOS\src/event_groups.c **** 
 533:FreeRTOS\src/event_groups.c **** 	pxList = &( pxEventBits->xTasksWaitingForBits );
 534:FreeRTOS\src/event_groups.c **** 	pxListEnd = listGET_END_MARKER( pxList ); /*lint !e826 !e740 !e9087 The mini list structure is use
 535:FreeRTOS\src/event_groups.c **** 	vTaskSuspendAll();
 536:FreeRTOS\src/event_groups.c **** 	{
 537:FreeRTOS\src/event_groups.c **** 		traceEVENT_GROUP_SET_BITS( xEventGroup, uxBitsToSet );
 538:FreeRTOS\src/event_groups.c **** 
 539:FreeRTOS\src/event_groups.c **** 		pxListItem = listGET_HEAD_ENTRY( pxList );
 540:FreeRTOS\src/event_groups.c **** 
 541:FreeRTOS\src/event_groups.c **** 		/* Set the bits. */
 542:FreeRTOS\src/event_groups.c **** 		pxEventBits->uxEventBits |= uxBitsToSet;
 543:FreeRTOS\src/event_groups.c **** 
 544:FreeRTOS\src/event_groups.c **** 		/* See if the new bit value should unblock any tasks. */
ARM GAS  C:\Users\nicol\AppData\Local\Temp\ccglm9UP.s 			page 11


 545:FreeRTOS\src/event_groups.c **** 		while( pxListItem != pxListEnd )
 546:FreeRTOS\src/event_groups.c **** 		{
 547:FreeRTOS\src/event_groups.c **** 			pxNext = listGET_NEXT( pxListItem );
 548:FreeRTOS\src/event_groups.c **** 			uxBitsWaitedFor = listGET_LIST_ITEM_VALUE( pxListItem );
 549:FreeRTOS\src/event_groups.c **** 			xMatchFound = pdFALSE;
 550:FreeRTOS\src/event_groups.c **** 
 551:FreeRTOS\src/event_groups.c **** 			/* Split the bits waited for from the control bits. */
 552:FreeRTOS\src/event_groups.c **** 			uxControlBits = uxBitsWaitedFor & eventEVENT_BITS_CONTROL_BYTES;
 553:FreeRTOS\src/event_groups.c **** 			uxBitsWaitedFor &= ~eventEVENT_BITS_CONTROL_BYTES;
 554:FreeRTOS\src/event_groups.c **** 
 555:FreeRTOS\src/event_groups.c **** 			if( ( uxControlBits & eventWAIT_FOR_ALL_BITS ) == ( EventBits_t ) 0 )
 556:FreeRTOS\src/event_groups.c **** 			{
 557:FreeRTOS\src/event_groups.c **** 				/* Just looking for single bit being set. */
 558:FreeRTOS\src/event_groups.c **** 				if( ( uxBitsWaitedFor & pxEventBits->uxEventBits ) != ( EventBits_t ) 0 )
 559:FreeRTOS\src/event_groups.c **** 				{
 560:FreeRTOS\src/event_groups.c **** 					xMatchFound = pdTRUE;
 561:FreeRTOS\src/event_groups.c **** 				}
 562:FreeRTOS\src/event_groups.c **** 				else
 563:FreeRTOS\src/event_groups.c **** 				{
 564:FreeRTOS\src/event_groups.c **** 					mtCOVERAGE_TEST_MARKER();
 565:FreeRTOS\src/event_groups.c **** 				}
 566:FreeRTOS\src/event_groups.c **** 			}
 567:FreeRTOS\src/event_groups.c **** 			else if( ( uxBitsWaitedFor & pxEventBits->uxEventBits ) == uxBitsWaitedFor )
 568:FreeRTOS\src/event_groups.c **** 			{
 569:FreeRTOS\src/event_groups.c **** 				/* All bits are set. */
 570:FreeRTOS\src/event_groups.c **** 				xMatchFound = pdTRUE;
 571:FreeRTOS\src/event_groups.c **** 			}
 572:FreeRTOS\src/event_groups.c **** 			else
 573:FreeRTOS\src/event_groups.c **** 			{
 574:FreeRTOS\src/event_groups.c **** 				/* Need all bits to be set, but not all the bits were set. */
 575:FreeRTOS\src/event_groups.c **** 			}
 576:FreeRTOS\src/event_groups.c **** 
 577:FreeRTOS\src/event_groups.c **** 			if( xMatchFound != pdFALSE )
 578:FreeRTOS\src/event_groups.c **** 			{
 579:FreeRTOS\src/event_groups.c **** 				/* The bits match.  Should the bits be cleared on exit? */
 580:FreeRTOS\src/event_groups.c **** 				if( ( uxControlBits & eventCLEAR_EVENTS_ON_EXIT_BIT ) != ( EventBits_t ) 0 )
 581:FreeRTOS\src/event_groups.c **** 				{
 582:FreeRTOS\src/event_groups.c **** 					uxBitsToClear |= uxBitsWaitedFor;
 583:FreeRTOS\src/event_groups.c **** 				}
 584:FreeRTOS\src/event_groups.c **** 				else
 585:FreeRTOS\src/event_groups.c **** 				{
 586:FreeRTOS\src/event_groups.c **** 					mtCOVERAGE_TEST_MARKER();
 587:FreeRTOS\src/event_groups.c **** 				}
 588:FreeRTOS\src/event_groups.c **** 
 589:FreeRTOS\src/event_groups.c **** 				/* Store the actual event flag value in the task's event list
 590:FreeRTOS\src/event_groups.c **** 				item before removing the task from the event list.  The
 591:FreeRTOS\src/event_groups.c **** 				eventUNBLOCKED_DUE_TO_BIT_SET bit is set so the task knows
 592:FreeRTOS\src/event_groups.c **** 				that is was unblocked due to its required bits matching, rather
 593:FreeRTOS\src/event_groups.c **** 				than because it timed out. */
 594:FreeRTOS\src/event_groups.c **** 				vTaskRemoveFromUnorderedEventList( pxListItem, pxEventBits->uxEventBits | eventUNBLOCKED_DUE_TO
 595:FreeRTOS\src/event_groups.c **** 			}
 596:FreeRTOS\src/event_groups.c **** 
 597:FreeRTOS\src/event_groups.c **** 			/* Move onto the next list item.  Note pxListItem->pxNext is not
 598:FreeRTOS\src/event_groups.c **** 			used here as the list item may have been removed from the event list
 599:FreeRTOS\src/event_groups.c **** 			and inserted into the ready/pending reading list. */
 600:FreeRTOS\src/event_groups.c **** 			pxListItem = pxNext;
 601:FreeRTOS\src/event_groups.c **** 		}
ARM GAS  C:\Users\nicol\AppData\Local\Temp\ccglm9UP.s 			page 12


 602:FreeRTOS\src/event_groups.c **** 
 603:FreeRTOS\src/event_groups.c **** 		/* Clear any bits that matched when the eventCLEAR_EVENTS_ON_EXIT_BIT
 604:FreeRTOS\src/event_groups.c **** 		bit was set in the control word. */
 605:FreeRTOS\src/event_groups.c **** 		pxEventBits->uxEventBits &= ~uxBitsToClear;
 606:FreeRTOS\src/event_groups.c **** 	}
 607:FreeRTOS\src/event_groups.c **** 	( void ) xTaskResumeAll();
 608:FreeRTOS\src/event_groups.c **** 
 609:FreeRTOS\src/event_groups.c **** 	return pxEventBits->uxEventBits;
 610:FreeRTOS\src/event_groups.c **** }
 611:FreeRTOS\src/event_groups.c **** /*-----------------------------------------------------------*/
 612:FreeRTOS\src/event_groups.c **** 
 613:FreeRTOS\src/event_groups.c **** void vEventGroupDelete( EventGroupHandle_t xEventGroup )
 614:FreeRTOS\src/event_groups.c **** {
 615:FreeRTOS\src/event_groups.c **** EventGroup_t *pxEventBits = xEventGroup;
 616:FreeRTOS\src/event_groups.c **** const List_t *pxTasksWaitingForBits = &( pxEventBits->xTasksWaitingForBits );
 617:FreeRTOS\src/event_groups.c **** 
 618:FreeRTOS\src/event_groups.c **** 	vTaskSuspendAll();
 619:FreeRTOS\src/event_groups.c **** 	{
 620:FreeRTOS\src/event_groups.c **** 		traceEVENT_GROUP_DELETE( xEventGroup );
 621:FreeRTOS\src/event_groups.c **** 
 622:FreeRTOS\src/event_groups.c **** 		while( listCURRENT_LIST_LENGTH( pxTasksWaitingForBits ) > ( UBaseType_t ) 0 )
 623:FreeRTOS\src/event_groups.c **** 		{
 624:FreeRTOS\src/event_groups.c **** 			/* Unblock the task, returning 0 as the event list is being deleted
 625:FreeRTOS\src/event_groups.c **** 			and cannot therefore have any bits set. */
 626:FreeRTOS\src/event_groups.c **** 			configASSERT( pxTasksWaitingForBits->xListEnd.pxNext != ( const ListItem_t * ) &( pxTasksWaiting
 627:FreeRTOS\src/event_groups.c **** 			vTaskRemoveFromUnorderedEventList( pxTasksWaitingForBits->xListEnd.pxNext, eventUNBLOCKED_DUE_TO
 628:FreeRTOS\src/event_groups.c **** 		}
 629:FreeRTOS\src/event_groups.c **** 
 630:FreeRTOS\src/event_groups.c **** 		#if( ( configSUPPORT_DYNAMIC_ALLOCATION == 1 ) && ( configSUPPORT_STATIC_ALLOCATION == 0 ) )
 631:FreeRTOS\src/event_groups.c **** 		{
 632:FreeRTOS\src/event_groups.c **** 			/* The event group can only have been allocated dynamically - free
 633:FreeRTOS\src/event_groups.c **** 			it again. */
 634:FreeRTOS\src/event_groups.c **** 			vPortFree( pxEventBits );
 635:FreeRTOS\src/event_groups.c **** 		}
 636:FreeRTOS\src/event_groups.c **** 		#elif( ( configSUPPORT_DYNAMIC_ALLOCATION == 1 ) && ( configSUPPORT_STATIC_ALLOCATION == 1 ) )
 637:FreeRTOS\src/event_groups.c **** 		{
 638:FreeRTOS\src/event_groups.c **** 			/* The event group could have been allocated statically or
 639:FreeRTOS\src/event_groups.c **** 			dynamically, so check before attempting to free the memory. */
 640:FreeRTOS\src/event_groups.c **** 			if( pxEventBits->ucStaticallyAllocated == ( uint8_t ) pdFALSE )
 641:FreeRTOS\src/event_groups.c **** 			{
 642:FreeRTOS\src/event_groups.c **** 				vPortFree( pxEventBits );
 643:FreeRTOS\src/event_groups.c **** 			}
 644:FreeRTOS\src/event_groups.c **** 			else
 645:FreeRTOS\src/event_groups.c **** 			{
 646:FreeRTOS\src/event_groups.c **** 				mtCOVERAGE_TEST_MARKER();
 647:FreeRTOS\src/event_groups.c **** 			}
 648:FreeRTOS\src/event_groups.c **** 		}
 649:FreeRTOS\src/event_groups.c **** 		#endif /* configSUPPORT_DYNAMIC_ALLOCATION */
 650:FreeRTOS\src/event_groups.c **** 	}
 651:FreeRTOS\src/event_groups.c **** 	( void ) xTaskResumeAll();
 652:FreeRTOS\src/event_groups.c **** }
 653:FreeRTOS\src/event_groups.c **** /*-----------------------------------------------------------*/
 654:FreeRTOS\src/event_groups.c **** 
 655:FreeRTOS\src/event_groups.c **** /* For internal use only - execute a 'set bits' command that was pended from
 656:FreeRTOS\src/event_groups.c **** an interrupt. */
 657:FreeRTOS\src/event_groups.c **** void vEventGroupSetBitsCallback( void *pvEventGroup, const uint32_t ulBitsToSet )
 658:FreeRTOS\src/event_groups.c **** {
ARM GAS  C:\Users\nicol\AppData\Local\Temp\ccglm9UP.s 			page 13


 659:FreeRTOS\src/event_groups.c **** 	( void ) xEventGroupSetBits( pvEventGroup, ( EventBits_t ) ulBitsToSet ); /*lint !e9079 Can't avoi
 660:FreeRTOS\src/event_groups.c **** }
 661:FreeRTOS\src/event_groups.c **** /*-----------------------------------------------------------*/
 662:FreeRTOS\src/event_groups.c **** 
 663:FreeRTOS\src/event_groups.c **** /* For internal use only - execute a 'clear bits' command that was pended from
 664:FreeRTOS\src/event_groups.c **** an interrupt. */
 665:FreeRTOS\src/event_groups.c **** void vEventGroupClearBitsCallback( void *pvEventGroup, const uint32_t ulBitsToClear )
 666:FreeRTOS\src/event_groups.c **** {
 667:FreeRTOS\src/event_groups.c **** 	( void ) xEventGroupClearBits( pvEventGroup, ( EventBits_t ) ulBitsToClear ); /*lint !e9079 Can't 
 668:FreeRTOS\src/event_groups.c **** }
 669:FreeRTOS\src/event_groups.c **** /*-----------------------------------------------------------*/
 670:FreeRTOS\src/event_groups.c **** 
 671:FreeRTOS\src/event_groups.c **** static BaseType_t prvTestWaitCondition( const EventBits_t uxCurrentEventBits, const EventBits_t uxB
 672:FreeRTOS\src/event_groups.c **** {
  27              		.loc 1 672 0
  28              		.cfi_startproc
  29              		@ args = 0, pretend = 0, frame = 0
  30              		@ frame_needed = 0, uses_anonymous_args = 0
  31              		@ link register save eliminated.
  32              	.LVL0:
 673:FreeRTOS\src/event_groups.c **** BaseType_t xWaitConditionMet = pdFALSE;
 674:FreeRTOS\src/event_groups.c **** 
 675:FreeRTOS\src/event_groups.c **** 	if( xWaitForAllBits == pdFALSE )
  33              		.loc 1 675 0
  34 0000 1AB9     		cbnz	r2, .L2
 676:FreeRTOS\src/event_groups.c **** 	{
 677:FreeRTOS\src/event_groups.c **** 		/* Task only has to wait for one bit within uxBitsToWaitFor to be
 678:FreeRTOS\src/event_groups.c **** 		set.  Is one already set? */
 679:FreeRTOS\src/event_groups.c **** 		if( ( uxCurrentEventBits & uxBitsToWaitFor ) != ( EventBits_t ) 0 )
  35              		.loc 1 679 0
  36 0002 0842     		tst	r0, r1
  37 0004 06D1     		bne	.L4
 673:FreeRTOS\src/event_groups.c **** BaseType_t xWaitConditionMet = pdFALSE;
  38              		.loc 1 673 0
  39 0006 0020     		movs	r0, #0
  40              	.LVL1:
  41 0008 7047     		bx	lr
  42              	.LVL2:
  43              	.L2:
 680:FreeRTOS\src/event_groups.c **** 		{
 681:FreeRTOS\src/event_groups.c **** 			xWaitConditionMet = pdTRUE;
 682:FreeRTOS\src/event_groups.c **** 		}
 683:FreeRTOS\src/event_groups.c **** 		else
 684:FreeRTOS\src/event_groups.c **** 		{
 685:FreeRTOS\src/event_groups.c **** 			mtCOVERAGE_TEST_MARKER();
 686:FreeRTOS\src/event_groups.c **** 		}
 687:FreeRTOS\src/event_groups.c **** 	}
 688:FreeRTOS\src/event_groups.c **** 	else
 689:FreeRTOS\src/event_groups.c **** 	{
 690:FreeRTOS\src/event_groups.c **** 		/* Task has to wait for all the bits in uxBitsToWaitFor to be set.
 691:FreeRTOS\src/event_groups.c **** 		Are they set already? */
 692:FreeRTOS\src/event_groups.c **** 		if( ( uxCurrentEventBits & uxBitsToWaitFor ) == uxBitsToWaitFor )
  44              		.loc 1 692 0
  45 000a 31EA0003 		bics	r3, r1, r0
  46 000e 03D0     		beq	.L5
 673:FreeRTOS\src/event_groups.c **** 
  47              		.loc 1 673 0
ARM GAS  C:\Users\nicol\AppData\Local\Temp\ccglm9UP.s 			page 14


  48 0010 0020     		movs	r0, #0
  49              	.LVL3:
  50 0012 7047     		bx	lr
  51              	.LVL4:
  52              	.L4:
 681:FreeRTOS\src/event_groups.c **** 		}
  53              		.loc 1 681 0
  54 0014 0120     		movs	r0, #1
  55              	.LVL5:
  56 0016 7047     		bx	lr
  57              	.LVL6:
  58              	.L5:
 693:FreeRTOS\src/event_groups.c **** 		{
 694:FreeRTOS\src/event_groups.c **** 			xWaitConditionMet = pdTRUE;
  59              		.loc 1 694 0
  60 0018 0120     		movs	r0, #1
  61              	.LVL7:
 695:FreeRTOS\src/event_groups.c **** 		}
 696:FreeRTOS\src/event_groups.c **** 		else
 697:FreeRTOS\src/event_groups.c **** 		{
 698:FreeRTOS\src/event_groups.c **** 			mtCOVERAGE_TEST_MARKER();
 699:FreeRTOS\src/event_groups.c **** 		}
 700:FreeRTOS\src/event_groups.c **** 	}
 701:FreeRTOS\src/event_groups.c **** 
 702:FreeRTOS\src/event_groups.c **** 	return xWaitConditionMet;
 703:FreeRTOS\src/event_groups.c **** }
  62              		.loc 1 703 0
  63 001a 7047     		bx	lr
  64              		.cfi_endproc
  65              	.LFE14:
  66              		.size	prvTestWaitCondition, .-prvTestWaitCondition
  67              		.section	.text.xEventGroupCreate,"ax",%progbits
  68              		.align	2
  69              		.global	xEventGroupCreate
  70              		.thumb
  71              		.thumb_func
  72              		.type	xEventGroupCreate, %function
  73              	xEventGroupCreate:
  74              	.LFB5:
 146:FreeRTOS\src/event_groups.c **** 	EventGroup_t *pxEventBits;
  75              		.loc 1 146 0
  76              		.cfi_startproc
  77              		@ args = 0, pretend = 0, frame = 0
  78              		@ frame_needed = 0, uses_anonymous_args = 0
  79 0000 10B5     		push	{r4, lr}
  80              		.cfi_def_cfa_offset 8
  81              		.cfi_offset 4, -8
  82              		.cfi_offset 14, -4
 162:FreeRTOS\src/event_groups.c **** 
  83              		.loc 1 162 0
  84 0002 1820     		movs	r0, #24
  85 0004 FFF7FEFF 		bl	pvPortMalloc
  86              	.LVL8:
 164:FreeRTOS\src/event_groups.c **** 		{
  87              		.loc 1 164 0
  88 0008 0446     		mov	r4, r0
  89 000a 20B1     		cbz	r0, .L7
ARM GAS  C:\Users\nicol\AppData\Local\Temp\ccglm9UP.s 			page 15


 166:FreeRTOS\src/event_groups.c **** 			vListInitialise( &( pxEventBits->xTasksWaitingForBits ) );
  90              		.loc 1 166 0
  91 000c 0023     		movs	r3, #0
  92 000e 40F8043B 		str	r3, [r0], #4
  93              	.LVL9:
 167:FreeRTOS\src/event_groups.c **** 
  94              		.loc 1 167 0
  95 0012 FFF7FEFF 		bl	vListInitialise
  96              	.LVL10:
  97              	.L7:
 186:FreeRTOS\src/event_groups.c **** 
  98              		.loc 1 186 0
  99 0016 2046     		mov	r0, r4
 100 0018 10BD     		pop	{r4, pc}
 101              		.cfi_endproc
 102              	.LFE5:
 103              		.size	xEventGroupCreate, .-xEventGroupCreate
 104 001a 00BF     		.section	.text.xEventGroupWaitBits,"ax",%progbits
 105              		.align	2
 106              		.global	xEventGroupWaitBits
 107              		.thumb
 108              		.thumb_func
 109              		.type	xEventGroupWaitBits, %function
 110              	xEventGroupWaitBits:
 111              	.LFB7:
 312:FreeRTOS\src/event_groups.c **** EventGroup_t *pxEventBits = xEventGroup;
 112              		.loc 1 312 0
 113              		.cfi_startproc
 114              		@ args = 4, pretend = 0, frame = 0
 115              		@ frame_needed = 0, uses_anonymous_args = 0
 116              	.LVL11:
 117 0000 2DE9F843 		push	{r3, r4, r5, r6, r7, r8, r9, lr}
 118              		.cfi_def_cfa_offset 32
 119              		.cfi_offset 3, -32
 120              		.cfi_offset 4, -28
 121              		.cfi_offset 5, -24
 122              		.cfi_offset 6, -20
 123              		.cfi_offset 7, -16
 124              		.cfi_offset 8, -12
 125              		.cfi_offset 9, -8
 126              		.cfi_offset 14, -4
 127 0004 0746     		mov	r7, r0
 128 0006 0E46     		mov	r6, r1
 129 0008 9146     		mov	r9, r2
 130 000a 9846     		mov	r8, r3
 131 000c 089D     		ldr	r5, [sp, #32]
 132              	.LVL12:
 329:FreeRTOS\src/event_groups.c **** 	{
 133              		.loc 1 329 0
 134 000e FFF7FEFF 		bl	vTaskSuspendAll
 135              	.LVL13:
 136              	.LBB6:
 331:FreeRTOS\src/event_groups.c **** 
 137              		.loc 1 331 0
 138 0012 3C68     		ldr	r4, [r7]
 139              	.LVL14:
 334:FreeRTOS\src/event_groups.c **** 
ARM GAS  C:\Users\nicol\AppData\Local\Temp\ccglm9UP.s 			page 16


 140              		.loc 1 334 0
 141 0014 4246     		mov	r2, r8
 142 0016 3146     		mov	r1, r6
 143 0018 2046     		mov	r0, r4
 144 001a FFF7FEFF 		bl	prvTestWaitCondition
 145              	.LVL15:
 336:FreeRTOS\src/event_groups.c **** 		{
 146              		.loc 1 336 0
 147 001e 38B1     		cbz	r0, .L10
 148              	.LVL16:
 344:FreeRTOS\src/event_groups.c **** 			{
 149              		.loc 1 344 0
 150 0020 B9F1000F 		cmp	r9, #0
 151 0024 18D0     		beq	.L18
 346:FreeRTOS\src/event_groups.c **** 			}
 152              		.loc 1 346 0
 153 0026 24EA0603 		bic	r3, r4, r6
 154 002a 3B60     		str	r3, [r7]
 341:FreeRTOS\src/event_groups.c **** 
 155              		.loc 1 341 0
 156 002c 0025     		movs	r5, #0
 157 002e 14E0     		b	.L11
 158              	.LVL17:
 159              	.L10:
 353:FreeRTOS\src/event_groups.c **** 		{
 160              		.loc 1 353 0
 161 0030 9DB1     		cbz	r5, .L11
 366:FreeRTOS\src/event_groups.c **** 			{
 162              		.loc 1 366 0
 163 0032 B9F1000F 		cmp	r9, #0
 164 0036 01D1     		bne	.L19
 165              	.LBE6:
 314:FreeRTOS\src/event_groups.c **** BaseType_t xWaitConditionMet, xAlreadyYielded;
 166              		.loc 1 314 0
 167 0038 0021     		movs	r1, #0
 168 003a 01E0     		b	.L12
 169              	.L19:
 170              	.LBB7:
 368:FreeRTOS\src/event_groups.c **** 			}
 171              		.loc 1 368 0
 172 003c 4FF08071 		mov	r1, #16777216
 173              	.L12:
 174              	.LVL18:
 375:FreeRTOS\src/event_groups.c **** 			{
 175              		.loc 1 375 0
 176 0040 B8F1000F 		cmp	r8, #0
 177 0044 01D0     		beq	.L13
 377:FreeRTOS\src/event_groups.c **** 			}
 178              		.loc 1 377 0
 179 0046 41F08061 		orr	r1, r1, #67108864
 180              	.LVL19:
 181              	.L13:
 387:FreeRTOS\src/event_groups.c **** 
 182              		.loc 1 387 0
 183 004a 2A46     		mov	r2, r5
 184 004c 3143     		orrs	r1, r1, r6
 185              	.LVL20:
ARM GAS  C:\Users\nicol\AppData\Local\Temp\ccglm9UP.s 			page 17


 186 004e 381D     		adds	r0, r7, #4
 187              	.LVL21:
 188 0050 FFF7FEFF 		bl	vTaskPlaceOnUnorderedEventList
 189              	.LVL22:
 392:FreeRTOS\src/event_groups.c **** 
 190              		.loc 1 392 0
 191 0054 0024     		movs	r4, #0
 192              	.LVL23:
 193 0056 00E0     		b	.L11
 194              	.LVL24:
 195              	.L18:
 341:FreeRTOS\src/event_groups.c **** 
 196              		.loc 1 341 0
 197 0058 0025     		movs	r5, #0
 198              	.LVL25:
 199              	.L11:
 200              	.LBE7:
 397:FreeRTOS\src/event_groups.c **** 
 201              		.loc 1 397 0
 202 005a FFF7FEFF 		bl	xTaskResumeAll
 203              	.LVL26:
 399:FreeRTOS\src/event_groups.c **** 	{
 204              		.loc 1 399 0
 205 005e 0DB3     		cbz	r5, .L14
 401:FreeRTOS\src/event_groups.c **** 		{
 206              		.loc 1 401 0
 207 0060 38B9     		cbnz	r0, .L15
 403:FreeRTOS\src/event_groups.c **** 		}
 208              		.loc 1 403 0
 209 0062 4FF08052 		mov	r2, #268435456
 210 0066 114B     		ldr	r3, .L21
 211 0068 1A60     		str	r2, [r3]
 212              		.syntax unified
 213              	@ 403 "FreeRTOS\src\event_groups.c" 1
 214 006a BFF34F8F 		dsb
 215              	@ 0 "" 2
 216              	@ 403 "FreeRTOS\src\event_groups.c" 1
 217 006e BFF36F8F 		isb
 218              	@ 0 "" 2
 219              		.thumb
 220              		.syntax unified
 221              	.L15:
 414:FreeRTOS\src/event_groups.c **** 
 222              		.loc 1 414 0
 223 0072 FFF7FEFF 		bl	uxTaskResetEventItemValue
 224              	.LVL27:
 225 0076 0446     		mov	r4, r0
 226              	.LVL28:
 416:FreeRTOS\src/event_groups.c **** 		{
 227              		.loc 1 416 0
 228 0078 10F0007F 		tst	r0, #33554432
 229 007c 10D1     		bne	.L16
 418:FreeRTOS\src/event_groups.c **** 			{
 230              		.loc 1 418 0
 231 007e FFF7FEFF 		bl	vPortEnterCritical
 232              	.LVL29:
 421:FreeRTOS\src/event_groups.c **** 
ARM GAS  C:\Users\nicol\AppData\Local\Temp\ccglm9UP.s 			page 18


 233              		.loc 1 421 0
 234 0082 3C68     		ldr	r4, [r7]
 235              	.LVL30:
 425:FreeRTOS\src/event_groups.c **** 				{
 236              		.loc 1 425 0
 237 0084 4246     		mov	r2, r8
 238 0086 3146     		mov	r1, r6
 239 0088 2046     		mov	r0, r4
 240 008a FFF7FEFF 		bl	prvTestWaitCondition
 241              	.LVL31:
 242 008e 28B1     		cbz	r0, .L17
 427:FreeRTOS\src/event_groups.c **** 					{
 243              		.loc 1 427 0
 244 0090 B9F1000F 		cmp	r9, #0
 245 0094 02D0     		beq	.L17
 429:FreeRTOS\src/event_groups.c **** 					}
 246              		.loc 1 429 0
 247 0096 24EA0606 		bic	r6, r4, r6
 248              	.LVL32:
 249 009a 3E60     		str	r6, [r7]
 250              	.L17:
 251              	.LVL33:
 442:FreeRTOS\src/event_groups.c **** 		}
 252              		.loc 1 442 0
 253 009c FFF7FEFF 		bl	vPortExitCritical
 254              	.LVL34:
 255              	.L16:
 450:FreeRTOS\src/event_groups.c **** 	}
 256              		.loc 1 450 0
 257 00a0 24F07F44 		bic	r4, r4, #-16777216
 258              	.LVL35:
 259              	.L14:
 458:FreeRTOS\src/event_groups.c **** /*-----------------------------------------------------------*/
 260              		.loc 1 458 0
 261 00a4 2046     		mov	r0, r4
 262 00a6 BDE8F883 		pop	{r3, r4, r5, r6, r7, r8, r9, pc}
 263              	.LVL36:
 264              	.L22:
 265 00aa 00BF     		.align	2
 266              	.L21:
 267 00ac 04ED00E0 		.word	-536810236
 268              		.cfi_endproc
 269              	.LFE7:
 270              		.size	xEventGroupWaitBits, .-xEventGroupWaitBits
 271              		.section	.text.xEventGroupClearBits,"ax",%progbits
 272              		.align	2
 273              		.global	xEventGroupClearBits
 274              		.thumb
 275              		.thumb_func
 276              		.type	xEventGroupClearBits, %function
 277              	xEventGroupClearBits:
 278              	.LFB8:
 462:FreeRTOS\src/event_groups.c **** EventGroup_t *pxEventBits = xEventGroup;
 279              		.loc 1 462 0
 280              		.cfi_startproc
 281              		@ args = 0, pretend = 0, frame = 0
 282              		@ frame_needed = 0, uses_anonymous_args = 0
ARM GAS  C:\Users\nicol\AppData\Local\Temp\ccglm9UP.s 			page 19


 283              	.LVL37:
 284 0000 70B5     		push	{r4, r5, r6, lr}
 285              		.cfi_def_cfa_offset 16
 286              		.cfi_offset 4, -16
 287              		.cfi_offset 5, -12
 288              		.cfi_offset 6, -8
 289              		.cfi_offset 14, -4
 290 0002 0646     		mov	r6, r0
 291 0004 0C46     		mov	r4, r1
 292              	.LVL38:
 471:FreeRTOS\src/event_groups.c **** 	{
 293              		.loc 1 471 0
 294 0006 FFF7FEFF 		bl	vPortEnterCritical
 295              	.LVL39:
 477:FreeRTOS\src/event_groups.c **** 
 296              		.loc 1 477 0
 297 000a 3568     		ldr	r5, [r6]
 298              	.LVL40:
 480:FreeRTOS\src/event_groups.c **** 	}
 299              		.loc 1 480 0
 300 000c 25EA0404 		bic	r4, r5, r4
 301              	.LVL41:
 302 0010 3460     		str	r4, [r6]
 482:FreeRTOS\src/event_groups.c **** 
 303              		.loc 1 482 0
 304 0012 FFF7FEFF 		bl	vPortExitCritical
 305              	.LVL42:
 485:FreeRTOS\src/event_groups.c **** /*-----------------------------------------------------------*/
 306              		.loc 1 485 0
 307 0016 2846     		mov	r0, r5
 308 0018 70BD     		pop	{r4, r5, r6, pc}
 309              		.cfi_endproc
 310              	.LFE8:
 311              		.size	xEventGroupClearBits, .-xEventGroupClearBits
 312 001a 00BF     		.section	.text.xEventGroupGetBitsFromISR,"ax",%progbits
 313              		.align	2
 314              		.global	xEventGroupGetBitsFromISR
 315              		.thumb
 316              		.thumb_func
 317              		.type	xEventGroupGetBitsFromISR, %function
 318              	xEventGroupGetBitsFromISR:
 319              	.LFB9:
 504:FreeRTOS\src/event_groups.c **** UBaseType_t uxSavedInterruptStatus;
 320              		.loc 1 504 0
 321              		.cfi_startproc
 322              		@ args = 0, pretend = 0, frame = 0
 323              		@ frame_needed = 0, uses_anonymous_args = 0
 324              		@ link register save eliminated.
 325              	.LVL43:
 326              	.LBB8:
 327              	.LBB9:
 328              		.file 2 ".\\FreeRTOS\\include/portmacro.h"
   1:.\FreeRTOS\include/portmacro.h **** /*
   2:.\FreeRTOS\include/portmacro.h ****  * FreeRTOS Kernel V10.1.1
   3:.\FreeRTOS\include/portmacro.h ****  * Copyright (C) 2018 Amazon.com, Inc. or its affiliates.  All Rights Reserved.
   4:.\FreeRTOS\include/portmacro.h ****  *
   5:.\FreeRTOS\include/portmacro.h ****  * Permission is hereby granted, free of charge, to any person obtaining a copy of
ARM GAS  C:\Users\nicol\AppData\Local\Temp\ccglm9UP.s 			page 20


   6:.\FreeRTOS\include/portmacro.h ****  * this software and associated documentation files (the "Software"), to deal in
   7:.\FreeRTOS\include/portmacro.h ****  * the Software without restriction, including without limitation the rights to
   8:.\FreeRTOS\include/portmacro.h ****  * use, copy, modify, merge, publish, distribute, sublicense, and/or sell copies of
   9:.\FreeRTOS\include/portmacro.h ****  * the Software, and to permit persons to whom the Software is furnished to do so,
  10:.\FreeRTOS\include/portmacro.h ****  * subject to the following conditions:
  11:.\FreeRTOS\include/portmacro.h ****  *
  12:.\FreeRTOS\include/portmacro.h ****  * The above copyright notice and this permission notice shall be included in all
  13:.\FreeRTOS\include/portmacro.h ****  * copies or substantial portions of the Software.
  14:.\FreeRTOS\include/portmacro.h ****  *
  15:.\FreeRTOS\include/portmacro.h ****  * THE SOFTWARE IS PROVIDED "AS IS", WITHOUT WARRANTY OF ANY KIND, EXPRESS OR
  16:.\FreeRTOS\include/portmacro.h ****  * IMPLIED, INCLUDING BUT NOT LIMITED TO THE WARRANTIES OF MERCHANTABILITY, FITNESS
  17:.\FreeRTOS\include/portmacro.h ****  * FOR A PARTICULAR PURPOSE AND NONINFRINGEMENT. IN NO EVENT SHALL THE AUTHORS OR
  18:.\FreeRTOS\include/portmacro.h ****  * COPYRIGHT HOLDERS BE LIABLE FOR ANY CLAIM, DAMAGES OR OTHER LIABILITY, WHETHER
  19:.\FreeRTOS\include/portmacro.h ****  * IN AN ACTION OF CONTRACT, TORT OR OTHERWISE, ARISING FROM, OUT OF OR IN
  20:.\FreeRTOS\include/portmacro.h ****  * CONNECTION WITH THE SOFTWARE OR THE USE OR OTHER DEALINGS IN THE SOFTWARE.
  21:.\FreeRTOS\include/portmacro.h ****  *
  22:.\FreeRTOS\include/portmacro.h ****  * http://www.FreeRTOS.org
  23:.\FreeRTOS\include/portmacro.h ****  * http://aws.amazon.com/freertos
  24:.\FreeRTOS\include/portmacro.h ****  *
  25:.\FreeRTOS\include/portmacro.h ****  * 1 tab == 4 spaces!
  26:.\FreeRTOS\include/portmacro.h ****  */
  27:.\FreeRTOS\include/portmacro.h **** 
  28:.\FreeRTOS\include/portmacro.h **** 
  29:.\FreeRTOS\include/portmacro.h **** #ifndef PORTMACRO_H
  30:.\FreeRTOS\include/portmacro.h **** #define PORTMACRO_H
  31:.\FreeRTOS\include/portmacro.h **** 
  32:.\FreeRTOS\include/portmacro.h **** #ifdef __cplusplus
  33:.\FreeRTOS\include/portmacro.h **** extern "C" {
  34:.\FreeRTOS\include/portmacro.h **** #endif
  35:.\FreeRTOS\include/portmacro.h **** 
  36:.\FreeRTOS\include/portmacro.h **** /*-----------------------------------------------------------
  37:.\FreeRTOS\include/portmacro.h ****  * Port specific definitions.
  38:.\FreeRTOS\include/portmacro.h ****  *
  39:.\FreeRTOS\include/portmacro.h ****  * The settings in this file configure FreeRTOS correctly for the
  40:.\FreeRTOS\include/portmacro.h ****  * given hardware and compiler.
  41:.\FreeRTOS\include/portmacro.h ****  *
  42:.\FreeRTOS\include/portmacro.h ****  * These settings should not be altered.
  43:.\FreeRTOS\include/portmacro.h ****  *-----------------------------------------------------------
  44:.\FreeRTOS\include/portmacro.h ****  */
  45:.\FreeRTOS\include/portmacro.h **** 
  46:.\FreeRTOS\include/portmacro.h **** /* Type definitions. */
  47:.\FreeRTOS\include/portmacro.h **** #define portCHAR		char
  48:.\FreeRTOS\include/portmacro.h **** #define portFLOAT		float
  49:.\FreeRTOS\include/portmacro.h **** #define portDOUBLE		double
  50:.\FreeRTOS\include/portmacro.h **** #define portLONG		long
  51:.\FreeRTOS\include/portmacro.h **** #define portSHORT		short
  52:.\FreeRTOS\include/portmacro.h **** #define portSTACK_TYPE	uint32_t
  53:.\FreeRTOS\include/portmacro.h **** #define portBASE_TYPE	long
  54:.\FreeRTOS\include/portmacro.h **** 
  55:.\FreeRTOS\include/portmacro.h **** typedef portSTACK_TYPE StackType_t;
  56:.\FreeRTOS\include/portmacro.h **** typedef long BaseType_t;
  57:.\FreeRTOS\include/portmacro.h **** typedef unsigned long UBaseType_t;
  58:.\FreeRTOS\include/portmacro.h **** 
  59:.\FreeRTOS\include/portmacro.h **** #if( configUSE_16_BIT_TICKS == 1 )
  60:.\FreeRTOS\include/portmacro.h **** 	typedef uint16_t TickType_t;
  61:.\FreeRTOS\include/portmacro.h **** 	#define portMAX_DELAY ( TickType_t ) 0xffff
  62:.\FreeRTOS\include/portmacro.h **** #else
ARM GAS  C:\Users\nicol\AppData\Local\Temp\ccglm9UP.s 			page 21


  63:.\FreeRTOS\include/portmacro.h **** 	typedef uint32_t TickType_t;
  64:.\FreeRTOS\include/portmacro.h **** 	#define portMAX_DELAY ( TickType_t ) 0xffffffffUL
  65:.\FreeRTOS\include/portmacro.h **** 
  66:.\FreeRTOS\include/portmacro.h **** 	/* 32-bit tick type on a 32-bit architecture, so reads of the tick count do
  67:.\FreeRTOS\include/portmacro.h **** 	not need to be guarded with a critical section. */
  68:.\FreeRTOS\include/portmacro.h **** 	#define portTICK_TYPE_IS_ATOMIC 1
  69:.\FreeRTOS\include/portmacro.h **** #endif
  70:.\FreeRTOS\include/portmacro.h **** /*-----------------------------------------------------------*/
  71:.\FreeRTOS\include/portmacro.h **** 
  72:.\FreeRTOS\include/portmacro.h **** /* Architecture specifics. */
  73:.\FreeRTOS\include/portmacro.h **** #define portSTACK_GROWTH			( -1 )
  74:.\FreeRTOS\include/portmacro.h **** #define portTICK_PERIOD_MS			( ( TickType_t ) 1000 / configTICK_RATE_HZ )
  75:.\FreeRTOS\include/portmacro.h **** #define portBYTE_ALIGNMENT			8
  76:.\FreeRTOS\include/portmacro.h **** /*-----------------------------------------------------------*/
  77:.\FreeRTOS\include/portmacro.h **** 
  78:.\FreeRTOS\include/portmacro.h **** /* Scheduler utilities. */
  79:.\FreeRTOS\include/portmacro.h **** #define portYIELD() 															\
  80:.\FreeRTOS\include/portmacro.h **** {																				\
  81:.\FreeRTOS\include/portmacro.h **** 	/* Set a PendSV to request a context switch. */								\
  82:.\FreeRTOS\include/portmacro.h **** 	portNVIC_INT_CTRL_REG = portNVIC_PENDSVSET_BIT;								\
  83:.\FreeRTOS\include/portmacro.h **** 																				\
  84:.\FreeRTOS\include/portmacro.h **** 	/* Barriers are normally not required but do ensure the code is completely	\
  85:.\FreeRTOS\include/portmacro.h **** 	within the specified behaviour for the architecture. */						\
  86:.\FreeRTOS\include/portmacro.h **** 	__asm volatile( "dsb" ::: "memory" );										\
  87:.\FreeRTOS\include/portmacro.h **** 	__asm volatile( "isb" );													\
  88:.\FreeRTOS\include/portmacro.h **** }
  89:.\FreeRTOS\include/portmacro.h **** 
  90:.\FreeRTOS\include/portmacro.h **** #define portNVIC_INT_CTRL_REG		( * ( ( volatile uint32_t * ) 0xe000ed04 ) )
  91:.\FreeRTOS\include/portmacro.h **** #define portNVIC_PENDSVSET_BIT		( 1UL << 28UL )
  92:.\FreeRTOS\include/portmacro.h **** #define portEND_SWITCHING_ISR( xSwitchRequired ) if( xSwitchRequired != pdFALSE ) portYIELD()
  93:.\FreeRTOS\include/portmacro.h **** #define portYIELD_FROM_ISR( x ) portEND_SWITCHING_ISR( x )
  94:.\FreeRTOS\include/portmacro.h **** /*-----------------------------------------------------------*/
  95:.\FreeRTOS\include/portmacro.h **** 
  96:.\FreeRTOS\include/portmacro.h **** /* Critical section management. */
  97:.\FreeRTOS\include/portmacro.h **** extern void vPortEnterCritical( void );
  98:.\FreeRTOS\include/portmacro.h **** extern void vPortExitCritical( void );
  99:.\FreeRTOS\include/portmacro.h **** #define portSET_INTERRUPT_MASK_FROM_ISR()		ulPortRaiseBASEPRI()
 100:.\FreeRTOS\include/portmacro.h **** #define portCLEAR_INTERRUPT_MASK_FROM_ISR(x)	vPortSetBASEPRI(x)
 101:.\FreeRTOS\include/portmacro.h **** #define portDISABLE_INTERRUPTS()				vPortRaiseBASEPRI()
 102:.\FreeRTOS\include/portmacro.h **** #define portENABLE_INTERRUPTS()					vPortSetBASEPRI(0)
 103:.\FreeRTOS\include/portmacro.h **** #define portENTER_CRITICAL()					vPortEnterCritical()
 104:.\FreeRTOS\include/portmacro.h **** #define portEXIT_CRITICAL()						vPortExitCritical()
 105:.\FreeRTOS\include/portmacro.h **** 
 106:.\FreeRTOS\include/portmacro.h **** /*-----------------------------------------------------------*/
 107:.\FreeRTOS\include/portmacro.h **** 
 108:.\FreeRTOS\include/portmacro.h **** /* Task function macros as described on the FreeRTOS.org WEB site.  These are
 109:.\FreeRTOS\include/portmacro.h **** not necessary for to use this port.  They are defined so the common demo files
 110:.\FreeRTOS\include/portmacro.h **** (which build with all the ports) will build. */
 111:.\FreeRTOS\include/portmacro.h **** #define portTASK_FUNCTION_PROTO( vFunction, pvParameters ) void vFunction( void *pvParameters )
 112:.\FreeRTOS\include/portmacro.h **** #define portTASK_FUNCTION( vFunction, pvParameters ) void vFunction( void *pvParameters )
 113:.\FreeRTOS\include/portmacro.h **** /*-----------------------------------------------------------*/
 114:.\FreeRTOS\include/portmacro.h **** 
 115:.\FreeRTOS\include/portmacro.h **** /* Tickless idle/low power functionality. */
 116:.\FreeRTOS\include/portmacro.h **** #ifndef portSUPPRESS_TICKS_AND_SLEEP
 117:.\FreeRTOS\include/portmacro.h **** 	extern void vPortSuppressTicksAndSleep( TickType_t xExpectedIdleTime );
 118:.\FreeRTOS\include/portmacro.h **** 	#define portSUPPRESS_TICKS_AND_SLEEP( xExpectedIdleTime ) vPortSuppressTicksAndSleep( xExpectedIdl
 119:.\FreeRTOS\include/portmacro.h **** #endif
ARM GAS  C:\Users\nicol\AppData\Local\Temp\ccglm9UP.s 			page 22


 120:.\FreeRTOS\include/portmacro.h **** /*-----------------------------------------------------------*/
 121:.\FreeRTOS\include/portmacro.h **** 
 122:.\FreeRTOS\include/portmacro.h **** /* Architecture specific optimisations. */
 123:.\FreeRTOS\include/portmacro.h **** #ifndef configUSE_PORT_OPTIMISED_TASK_SELECTION
 124:.\FreeRTOS\include/portmacro.h **** 	#define configUSE_PORT_OPTIMISED_TASK_SELECTION 1
 125:.\FreeRTOS\include/portmacro.h **** #endif
 126:.\FreeRTOS\include/portmacro.h **** 
 127:.\FreeRTOS\include/portmacro.h **** #if configUSE_PORT_OPTIMISED_TASK_SELECTION == 1
 128:.\FreeRTOS\include/portmacro.h **** 
 129:.\FreeRTOS\include/portmacro.h **** 	/* Generic helper function. */
 130:.\FreeRTOS\include/portmacro.h **** 	__attribute__( ( always_inline ) ) static inline uint8_t ucPortCountLeadingZeros( uint32_t ulBitma
 131:.\FreeRTOS\include/portmacro.h **** 	{
 132:.\FreeRTOS\include/portmacro.h **** 	uint8_t ucReturn;
 133:.\FreeRTOS\include/portmacro.h **** 
 134:.\FreeRTOS\include/portmacro.h **** 		__asm volatile ( "clz %0, %1" : "=r" ( ucReturn ) : "r" ( ulBitmap ) : "memory" );
 135:.\FreeRTOS\include/portmacro.h **** 		return ucReturn;
 136:.\FreeRTOS\include/portmacro.h **** 	}
 137:.\FreeRTOS\include/portmacro.h **** 
 138:.\FreeRTOS\include/portmacro.h **** 	/* Check the configuration. */
 139:.\FreeRTOS\include/portmacro.h **** 	#if( configMAX_PRIORITIES > 32 )
 140:.\FreeRTOS\include/portmacro.h **** 		#error configUSE_PORT_OPTIMISED_TASK_SELECTION can only be set to 1 when configMAX_PRIORITIES is 
 141:.\FreeRTOS\include/portmacro.h **** 	#endif
 142:.\FreeRTOS\include/portmacro.h **** 
 143:.\FreeRTOS\include/portmacro.h **** 	/* Store/clear the ready priorities in a bit map. */
 144:.\FreeRTOS\include/portmacro.h **** 	#define portRECORD_READY_PRIORITY( uxPriority, uxReadyPriorities ) ( uxReadyPriorities ) |= ( 1UL 
 145:.\FreeRTOS\include/portmacro.h **** 	#define portRESET_READY_PRIORITY( uxPriority, uxReadyPriorities ) ( uxReadyPriorities ) &= ~( 1UL 
 146:.\FreeRTOS\include/portmacro.h **** 
 147:.\FreeRTOS\include/portmacro.h **** 	/*-----------------------------------------------------------*/
 148:.\FreeRTOS\include/portmacro.h **** 
 149:.\FreeRTOS\include/portmacro.h **** 	#define portGET_HIGHEST_PRIORITY( uxTopPriority, uxReadyPriorities ) uxTopPriority = ( 31UL - ( ui
 150:.\FreeRTOS\include/portmacro.h **** 
 151:.\FreeRTOS\include/portmacro.h **** #endif /* configUSE_PORT_OPTIMISED_TASK_SELECTION */
 152:.\FreeRTOS\include/portmacro.h **** 
 153:.\FreeRTOS\include/portmacro.h **** /*-----------------------------------------------------------*/
 154:.\FreeRTOS\include/portmacro.h **** 
 155:.\FreeRTOS\include/portmacro.h **** #ifdef configASSERT
 156:.\FreeRTOS\include/portmacro.h **** 	void vPortValidateInterruptPriority( void );
 157:.\FreeRTOS\include/portmacro.h **** 	#define portASSERT_IF_INTERRUPT_PRIORITY_INVALID() 	vPortValidateInterruptPriority()
 158:.\FreeRTOS\include/portmacro.h **** #endif
 159:.\FreeRTOS\include/portmacro.h **** 
 160:.\FreeRTOS\include/portmacro.h **** /* portNOP() is not required by this port. */
 161:.\FreeRTOS\include/portmacro.h **** #define portNOP()
 162:.\FreeRTOS\include/portmacro.h **** 
 163:.\FreeRTOS\include/portmacro.h **** #define portINLINE	__inline
 164:.\FreeRTOS\include/portmacro.h **** 
 165:.\FreeRTOS\include/portmacro.h **** #ifndef portFORCE_INLINE
 166:.\FreeRTOS\include/portmacro.h **** 	#define portFORCE_INLINE inline __attribute__(( always_inline))
 167:.\FreeRTOS\include/portmacro.h **** #endif
 168:.\FreeRTOS\include/portmacro.h **** 
 169:.\FreeRTOS\include/portmacro.h **** portFORCE_INLINE static BaseType_t xPortIsInsideInterrupt( void )
 170:.\FreeRTOS\include/portmacro.h **** {
 171:.\FreeRTOS\include/portmacro.h **** uint32_t ulCurrentInterrupt;
 172:.\FreeRTOS\include/portmacro.h **** BaseType_t xReturn;
 173:.\FreeRTOS\include/portmacro.h **** 
 174:.\FreeRTOS\include/portmacro.h **** 	/* Obtain the number of the currently executing interrupt. */
 175:.\FreeRTOS\include/portmacro.h **** 	__asm volatile( "mrs %0, ipsr" : "=r"( ulCurrentInterrupt ) :: "memory" );
 176:.\FreeRTOS\include/portmacro.h **** 
ARM GAS  C:\Users\nicol\AppData\Local\Temp\ccglm9UP.s 			page 23


 177:.\FreeRTOS\include/portmacro.h **** 	if( ulCurrentInterrupt == 0 )
 178:.\FreeRTOS\include/portmacro.h **** 	{
 179:.\FreeRTOS\include/portmacro.h **** 		xReturn = pdFALSE;
 180:.\FreeRTOS\include/portmacro.h **** 	}
 181:.\FreeRTOS\include/portmacro.h **** 	else
 182:.\FreeRTOS\include/portmacro.h **** 	{
 183:.\FreeRTOS\include/portmacro.h **** 		xReturn = pdTRUE;
 184:.\FreeRTOS\include/portmacro.h **** 	}
 185:.\FreeRTOS\include/portmacro.h **** 
 186:.\FreeRTOS\include/portmacro.h **** 	return xReturn;
 187:.\FreeRTOS\include/portmacro.h **** }
 188:.\FreeRTOS\include/portmacro.h **** 
 189:.\FreeRTOS\include/portmacro.h **** /*-----------------------------------------------------------*/
 190:.\FreeRTOS\include/portmacro.h **** 
 191:.\FreeRTOS\include/portmacro.h **** portFORCE_INLINE static void vPortRaiseBASEPRI( void )
 192:.\FreeRTOS\include/portmacro.h **** {
 193:.\FreeRTOS\include/portmacro.h **** uint32_t ulNewBASEPRI;
 194:.\FreeRTOS\include/portmacro.h **** 
 195:.\FreeRTOS\include/portmacro.h **** 	__asm volatile
 196:.\FreeRTOS\include/portmacro.h **** 	(
 197:.\FreeRTOS\include/portmacro.h **** 		"	mov %0, %1												\n" \
 198:.\FreeRTOS\include/portmacro.h **** 		"	msr basepri, %0											\n" \
 199:.\FreeRTOS\include/portmacro.h **** 		"	isb														\n" \
 200:.\FreeRTOS\include/portmacro.h **** 		"	dsb														\n" \
 201:.\FreeRTOS\include/portmacro.h **** 		:"=r" (ulNewBASEPRI) : "i" ( configMAX_SYSCALL_INTERRUPT_PRIORITY ) : "memory"
 202:.\FreeRTOS\include/portmacro.h **** 	);
 203:.\FreeRTOS\include/portmacro.h **** }
 204:.\FreeRTOS\include/portmacro.h **** 
 205:.\FreeRTOS\include/portmacro.h **** /*-----------------------------------------------------------*/
 206:.\FreeRTOS\include/portmacro.h **** 
 207:.\FreeRTOS\include/portmacro.h **** portFORCE_INLINE static uint32_t ulPortRaiseBASEPRI( void )
 208:.\FreeRTOS\include/portmacro.h **** {
 209:.\FreeRTOS\include/portmacro.h **** uint32_t ulOriginalBASEPRI, ulNewBASEPRI;
 210:.\FreeRTOS\include/portmacro.h **** 
 211:.\FreeRTOS\include/portmacro.h **** 	__asm volatile
 329              		.loc 2 211 0
 330              		.syntax unified
 331              	@ 211 ".\FreeRTOS\include/portmacro.h" 1
 332 0000 EFF31183 			mrs r3, basepri											
 333 0004 4FF0A002 		mov r2, #160												
 334 0008 82F31188 		msr basepri, r2											
 335 000c BFF36F8F 		isb														
 336 0010 BFF34F8F 		dsb														
 337              	
 338              	@ 0 "" 2
 339              		.thumb
 340              		.syntax unified
 341              	.LBE9:
 342              	.LBE8:
 511:FreeRTOS\src/event_groups.c **** 	}
 343              		.loc 1 511 0
 344 0014 0068     		ldr	r0, [r0]
 345              	.LVL44:
 346              	.LBB10:
 347              	.LBB11:
 212:.\FreeRTOS\include/portmacro.h **** 	(
 213:.\FreeRTOS\include/portmacro.h **** 		"	mrs %0, basepri											\n" \
ARM GAS  C:\Users\nicol\AppData\Local\Temp\ccglm9UP.s 			page 24


 214:.\FreeRTOS\include/portmacro.h **** 		"	mov %1, %2												\n" \
 215:.\FreeRTOS\include/portmacro.h **** 		"	msr basepri, %1											\n" \
 216:.\FreeRTOS\include/portmacro.h **** 		"	isb														\n" \
 217:.\FreeRTOS\include/portmacro.h **** 		"	dsb														\n" \
 218:.\FreeRTOS\include/portmacro.h **** 		:"=r" (ulOriginalBASEPRI), "=r" (ulNewBASEPRI) : "i" ( configMAX_SYSCALL_INTERRUPT_PRIORITY ) : "
 219:.\FreeRTOS\include/portmacro.h **** 	);
 220:.\FreeRTOS\include/portmacro.h **** 
 221:.\FreeRTOS\include/portmacro.h **** 	/* This return will not be reached but is necessary to prevent compiler
 222:.\FreeRTOS\include/portmacro.h **** 	warnings. */
 223:.\FreeRTOS\include/portmacro.h **** 	return ulOriginalBASEPRI;
 224:.\FreeRTOS\include/portmacro.h **** }
 225:.\FreeRTOS\include/portmacro.h **** /*-----------------------------------------------------------*/
 226:.\FreeRTOS\include/portmacro.h **** 
 227:.\FreeRTOS\include/portmacro.h **** portFORCE_INLINE static void vPortSetBASEPRI( uint32_t ulNewMaskValue )
 228:.\FreeRTOS\include/portmacro.h **** {
 229:.\FreeRTOS\include/portmacro.h **** 	__asm volatile
 348              		.loc 2 229 0
 349              		.syntax unified
 350              	@ 229 ".\FreeRTOS\include/portmacro.h" 1
 351 0016 83F31188 			msr basepri, r3	
 352              	@ 0 "" 2
 353              		.thumb
 354              		.syntax unified
 355              	.LBE11:
 356              	.LBE10:
 516:FreeRTOS\src/event_groups.c **** /*-----------------------------------------------------------*/
 357              		.loc 1 516 0
 358 001a 7047     		bx	lr
 359              		.cfi_endproc
 360              	.LFE9:
 361              		.size	xEventGroupGetBitsFromISR, .-xEventGroupGetBitsFromISR
 362              		.section	.text.xEventGroupSetBits,"ax",%progbits
 363              		.align	2
 364              		.global	xEventGroupSetBits
 365              		.thumb
 366              		.thumb_func
 367              		.type	xEventGroupSetBits, %function
 368              	xEventGroupSetBits:
 369              	.LFB10:
 520:FreeRTOS\src/event_groups.c **** ListItem_t *pxListItem, *pxNext;
 370              		.loc 1 520 0
 371              		.cfi_startproc
 372              		@ args = 0, pretend = 0, frame = 0
 373              		@ frame_needed = 0, uses_anonymous_args = 0
 374              	.LVL45:
 375 0000 F8B5     		push	{r3, r4, r5, r6, r7, lr}
 376              		.cfi_def_cfa_offset 24
 377              		.cfi_offset 3, -24
 378              		.cfi_offset 4, -20
 379              		.cfi_offset 5, -16
 380              		.cfi_offset 6, -12
 381              		.cfi_offset 7, -8
 382              		.cfi_offset 14, -4
 383 0002 0446     		mov	r4, r0
 384 0004 0D46     		mov	r5, r1
 385              	.LVL46:
 534:FreeRTOS\src/event_groups.c **** 	vTaskSuspendAll();
ARM GAS  C:\Users\nicol\AppData\Local\Temp\ccglm9UP.s 			page 25


 386              		.loc 1 534 0
 387 0006 00F10C06 		add	r6, r0, #12
 388              	.LVL47:
 535:FreeRTOS\src/event_groups.c **** 	{
 389              		.loc 1 535 0
 390 000a FFF7FEFF 		bl	vTaskSuspendAll
 391              	.LVL48:
 539:FreeRTOS\src/event_groups.c **** 
 392              		.loc 1 539 0
 393 000e 2069     		ldr	r0, [r4, #16]
 394              	.LVL49:
 542:FreeRTOS\src/event_groups.c **** 
 395              		.loc 1 542 0
 396 0010 2368     		ldr	r3, [r4]
 397 0012 1D43     		orrs	r5, r5, r3
 398              	.LVL50:
 399 0014 2560     		str	r5, [r4]
 524:FreeRTOS\src/event_groups.c **** EventGroup_t *pxEventBits = xEventGroup;
 400              		.loc 1 524 0
 401 0016 0027     		movs	r7, #0
 545:FreeRTOS\src/event_groups.c **** 		{
 402              		.loc 1 545 0
 403 0018 1FE0     		b	.L27
 404              	.LVL51:
 405              	.L32:
 547:FreeRTOS\src/event_groups.c **** 			uxBitsWaitedFor = listGET_LIST_ITEM_VALUE( pxListItem );
 406              		.loc 1 547 0
 407 001a 4568     		ldr	r5, [r0, #4]
 408              	.LVL52:
 548:FreeRTOS\src/event_groups.c **** 			xMatchFound = pdFALSE;
 409              		.loc 1 548 0
 410 001c 0368     		ldr	r3, [r0]
 411              	.LVL53:
 553:FreeRTOS\src/event_groups.c **** 
 412              		.loc 1 553 0
 413 001e 23F07F42 		bic	r2, r3, #-16777216
 414              	.LVL54:
 555:FreeRTOS\src/event_groups.c **** 			{
 415              		.loc 1 555 0
 416 0022 13F0806F 		tst	r3, #67108864
 417 0026 04D1     		bne	.L28
 558:FreeRTOS\src/event_groups.c **** 				{
 418              		.loc 1 558 0
 419 0028 2168     		ldr	r1, [r4]
 420 002a 0A42     		tst	r2, r1
 421 002c 07D1     		bne	.L33
 549:FreeRTOS\src/event_groups.c **** 
 422              		.loc 1 549 0
 423 002e 0021     		movs	r1, #0
 424 0030 08E0     		b	.L29
 425              	.L28:
 567:FreeRTOS\src/event_groups.c **** 			{
 426              		.loc 1 567 0
 427 0032 2168     		ldr	r1, [r4]
 428 0034 32EA0101 		bics	r1, r2, r1
 429 0038 03D0     		beq	.L34
 549:FreeRTOS\src/event_groups.c **** 
ARM GAS  C:\Users\nicol\AppData\Local\Temp\ccglm9UP.s 			page 26


 430              		.loc 1 549 0
 431 003a 0021     		movs	r1, #0
 432 003c 02E0     		b	.L29
 433              	.L33:
 560:FreeRTOS\src/event_groups.c **** 				}
 434              		.loc 1 560 0
 435 003e 0121     		movs	r1, #1
 436 0040 00E0     		b	.L29
 437              	.L34:
 570:FreeRTOS\src/event_groups.c **** 			}
 438              		.loc 1 570 0
 439 0042 0121     		movs	r1, #1
 440              	.L29:
 441              	.LVL55:
 577:FreeRTOS\src/event_groups.c **** 			{
 442              		.loc 1 577 0
 443 0044 41B1     		cbz	r1, .L30
 580:FreeRTOS\src/event_groups.c **** 				{
 444              		.loc 1 580 0
 445 0046 13F0807F 		tst	r3, #16777216
 446 004a 00D0     		beq	.L31
 582:FreeRTOS\src/event_groups.c **** 				}
 447              		.loc 1 582 0
 448 004c 1743     		orrs	r7, r7, r2
 449              	.LVL56:
 450              	.L31:
 594:FreeRTOS\src/event_groups.c **** 			}
 451              		.loc 1 594 0
 452 004e 2168     		ldr	r1, [r4]
 453              	.LVL57:
 454 0050 41F00071 		orr	r1, r1, #33554432
 455 0054 FFF7FEFF 		bl	vTaskRemoveFromUnorderedEventList
 456              	.LVL58:
 457              	.L30:
 549:FreeRTOS\src/event_groups.c **** 
 458              		.loc 1 549 0
 459 0058 2846     		mov	r0, r5
 460              	.LVL59:
 461              	.L27:
 545:FreeRTOS\src/event_groups.c **** 		{
 462              		.loc 1 545 0
 463 005a B042     		cmp	r0, r6
 464 005c DDD1     		bne	.L32
 605:FreeRTOS\src/event_groups.c **** 	}
 465              		.loc 1 605 0
 466 005e 2368     		ldr	r3, [r4]
 467 0060 23EA0707 		bic	r7, r3, r7
 468              	.LVL60:
 469 0064 2760     		str	r7, [r4]
 607:FreeRTOS\src/event_groups.c **** 
 470              		.loc 1 607 0
 471 0066 FFF7FEFF 		bl	xTaskResumeAll
 472              	.LVL61:
 610:FreeRTOS\src/event_groups.c **** /*-----------------------------------------------------------*/
 473              		.loc 1 610 0
 474 006a 2068     		ldr	r0, [r4]
 475 006c F8BD     		pop	{r3, r4, r5, r6, r7, pc}
ARM GAS  C:\Users\nicol\AppData\Local\Temp\ccglm9UP.s 			page 27


 476              		.cfi_endproc
 477              	.LFE10:
 478              		.size	xEventGroupSetBits, .-xEventGroupSetBits
 479 006e 00BF     		.section	.text.xEventGroupSync,"ax",%progbits
 480              		.align	2
 481              		.global	xEventGroupSync
 482              		.thumb
 483              		.thumb_func
 484              		.type	xEventGroupSync, %function
 485              	xEventGroupSync:
 486              	.LFB6:
 192:FreeRTOS\src/event_groups.c **** EventBits_t uxOriginalBitValue, uxReturn;
 487              		.loc 1 192 0
 488              		.cfi_startproc
 489              		@ args = 0, pretend = 0, frame = 0
 490              		@ frame_needed = 0, uses_anonymous_args = 0
 491              	.LVL62:
 492 0000 2DE9F041 		push	{r4, r5, r6, r7, r8, lr}
 493              		.cfi_def_cfa_offset 24
 494              		.cfi_offset 4, -24
 495              		.cfi_offset 5, -20
 496              		.cfi_offset 6, -16
 497              		.cfi_offset 7, -12
 498              		.cfi_offset 8, -8
 499              		.cfi_offset 14, -4
 500 0004 0546     		mov	r5, r0
 501 0006 0C46     		mov	r4, r1
 502 0008 1746     		mov	r7, r2
 503 000a 1E46     		mov	r6, r3
 504              	.LVL63:
 206:FreeRTOS\src/event_groups.c **** 	{
 505              		.loc 1 206 0
 506 000c FFF7FEFF 		bl	vTaskSuspendAll
 507              	.LVL64:
 208:FreeRTOS\src/event_groups.c **** 
 508              		.loc 1 208 0
 509 0010 D5F80080 		ldr	r8, [r5]
 510              	.LVL65:
 210:FreeRTOS\src/event_groups.c **** 
 511              		.loc 1 210 0
 512 0014 2146     		mov	r1, r4
 513 0016 2846     		mov	r0, r5
 514 0018 FFF7FEFF 		bl	xEventGroupSetBits
 515              	.LVL66:
 212:FreeRTOS\src/event_groups.c **** 		{
 516              		.loc 1 212 0
 517 001c 48EA0404 		orr	r4, r8, r4
 518              	.LVL67:
 519 0020 37EA0403 		bics	r3, r7, r4
 520 0024 05D1     		bne	.L37
 521              	.LVL68:
 219:FreeRTOS\src/event_groups.c **** 
 522              		.loc 1 219 0
 523 0026 2B68     		ldr	r3, [r5]
 524 0028 23EA0703 		bic	r3, r3, r7
 525 002c 2B60     		str	r3, [r5]
 526              	.LVL69:
ARM GAS  C:\Users\nicol\AppData\Local\Temp\ccglm9UP.s 			page 28


 221:FreeRTOS\src/event_groups.c **** 		}
 527              		.loc 1 221 0
 528 002e 0026     		movs	r6, #0
 529 0030 09E0     		b	.L38
 530              	.LVL70:
 531              	.L37:
 225:FreeRTOS\src/event_groups.c **** 			{
 532              		.loc 1 225 0
 533 0032 3EB1     		cbz	r6, .L39
 232:FreeRTOS\src/event_groups.c **** 
 534              		.loc 1 232 0
 535 0034 3246     		mov	r2, r6
 536 0036 47F0A061 		orr	r1, r7, #83886080
 537 003a 281D     		adds	r0, r5, #4
 538 003c FFF7FEFF 		bl	vTaskPlaceOnUnorderedEventList
 539              	.LVL71:
 238:FreeRTOS\src/event_groups.c **** 			}
 540              		.loc 1 238 0
 541 0040 0024     		movs	r4, #0
 542 0042 00E0     		b	.L38
 543              	.LVL72:
 544              	.L39:
 244:FreeRTOS\src/event_groups.c **** 				xTimeoutOccurred = pdTRUE;
 545              		.loc 1 244 0
 546 0044 2C68     		ldr	r4, [r5]
 547              	.LVL73:
 548              	.L38:
 249:FreeRTOS\src/event_groups.c **** 
 549              		.loc 1 249 0
 550 0046 FFF7FEFF 		bl	xTaskResumeAll
 551              	.LVL74:
 251:FreeRTOS\src/event_groups.c **** 	{
 552              		.loc 1 251 0
 553 004a DEB1     		cbz	r6, .L40
 253:FreeRTOS\src/event_groups.c **** 		{
 554              		.loc 1 253 0
 555 004c 38B9     		cbnz	r0, .L41
 255:FreeRTOS\src/event_groups.c **** 		}
 556              		.loc 1 255 0
 557 004e 4FF08052 		mov	r2, #268435456
 558 0052 0E4B     		ldr	r3, .L45
 559 0054 1A60     		str	r2, [r3]
 560              		.syntax unified
 561              	@ 255 "FreeRTOS\src\event_groups.c" 1
 562 0056 BFF34F8F 		dsb
 563              	@ 0 "" 2
 564              	@ 255 "FreeRTOS\src\event_groups.c" 1
 565 005a BFF36F8F 		isb
 566              	@ 0 "" 2
 567              		.thumb
 568              		.syntax unified
 569              	.L41:
 266:FreeRTOS\src/event_groups.c **** 
 570              		.loc 1 266 0
 571 005e FFF7FEFF 		bl	uxTaskResetEventItemValue
 572              	.LVL75:
 573 0062 0446     		mov	r4, r0
ARM GAS  C:\Users\nicol\AppData\Local\Temp\ccglm9UP.s 			page 29


 574              	.LVL76:
 268:FreeRTOS\src/event_groups.c **** 		{
 575              		.loc 1 268 0
 576 0064 10F0007F 		tst	r0, #33554432
 577 0068 0AD1     		bne	.L42
 271:FreeRTOS\src/event_groups.c **** 			{
 578              		.loc 1 271 0
 579 006a FFF7FEFF 		bl	vPortEnterCritical
 580              	.LVL77:
 273:FreeRTOS\src/event_groups.c **** 
 581              		.loc 1 273 0
 582 006e 2C68     		ldr	r4, [r5]
 583              	.LVL78:
 279:FreeRTOS\src/event_groups.c **** 				{
 584              		.loc 1 279 0
 585 0070 37EA0403 		bics	r3, r7, r4
 586 0074 02D1     		bne	.L43
 281:FreeRTOS\src/event_groups.c **** 				}
 587              		.loc 1 281 0
 588 0076 24EA0707 		bic	r7, r4, r7
 589              	.LVL79:
 590 007a 2F60     		str	r7, [r5]
 591              	.L43:
 288:FreeRTOS\src/event_groups.c **** 
 592              		.loc 1 288 0
 593 007c FFF7FEFF 		bl	vPortExitCritical
 594              	.LVL80:
 595              	.L42:
 299:FreeRTOS\src/event_groups.c **** 	}
 596              		.loc 1 299 0
 597 0080 24F07F44 		bic	r4, r4, #-16777216
 598              	.LVL81:
 599              	.L40:
 308:FreeRTOS\src/event_groups.c **** /*-----------------------------------------------------------*/
 600              		.loc 1 308 0
 601 0084 2046     		mov	r0, r4
 602 0086 BDE8F081 		pop	{r4, r5, r6, r7, r8, pc}
 603              	.LVL82:
 604              	.L46:
 605 008a 00BF     		.align	2
 606              	.L45:
 607 008c 04ED00E0 		.word	-536810236
 608              		.cfi_endproc
 609              	.LFE6:
 610              		.size	xEventGroupSync, .-xEventGroupSync
 611              		.section	.text.vEventGroupDelete,"ax",%progbits
 612              		.align	2
 613              		.global	vEventGroupDelete
 614              		.thumb
 615              		.thumb_func
 616              		.type	vEventGroupDelete, %function
 617              	vEventGroupDelete:
 618              	.LFB11:
 614:FreeRTOS\src/event_groups.c **** EventGroup_t *pxEventBits = xEventGroup;
 619              		.loc 1 614 0
 620              		.cfi_startproc
 621              		@ args = 0, pretend = 0, frame = 0
ARM GAS  C:\Users\nicol\AppData\Local\Temp\ccglm9UP.s 			page 30


 622              		@ frame_needed = 0, uses_anonymous_args = 0
 623              	.LVL83:
 624 0000 10B5     		push	{r4, lr}
 625              		.cfi_def_cfa_offset 8
 626              		.cfi_offset 4, -8
 627              		.cfi_offset 14, -4
 628 0002 0446     		mov	r4, r0
 629              	.LVL84:
 618:FreeRTOS\src/event_groups.c **** 	{
 630              		.loc 1 618 0
 631 0004 FFF7FEFF 		bl	vTaskSuspendAll
 632              	.LVL85:
 622:FreeRTOS\src/event_groups.c **** 		{
 633              		.loc 1 622 0
 634 0008 04E0     		b	.L48
 635              	.L49:
 627:FreeRTOS\src/event_groups.c **** 		}
 636              		.loc 1 627 0
 637 000a 4FF00071 		mov	r1, #33554432
 638 000e 2069     		ldr	r0, [r4, #16]
 639 0010 FFF7FEFF 		bl	vTaskRemoveFromUnorderedEventList
 640              	.LVL86:
 641              	.L48:
 622:FreeRTOS\src/event_groups.c **** 		{
 642              		.loc 1 622 0
 643 0014 6368     		ldr	r3, [r4, #4]
 644 0016 002B     		cmp	r3, #0
 645 0018 F7D1     		bne	.L49
 634:FreeRTOS\src/event_groups.c **** 		}
 646              		.loc 1 634 0
 647 001a 2046     		mov	r0, r4
 648 001c FFF7FEFF 		bl	vPortFree
 649              	.LVL87:
 651:FreeRTOS\src/event_groups.c **** }
 650              		.loc 1 651 0
 651 0020 FFF7FEFF 		bl	xTaskResumeAll
 652              	.LVL88:
 653 0024 10BD     		pop	{r4, pc}
 654              		.cfi_endproc
 655              	.LFE11:
 656              		.size	vEventGroupDelete, .-vEventGroupDelete
 657 0026 00BF     		.section	.text.vEventGroupSetBitsCallback,"ax",%progbits
 658              		.align	2
 659              		.global	vEventGroupSetBitsCallback
 660              		.thumb
 661              		.thumb_func
 662              		.type	vEventGroupSetBitsCallback, %function
 663              	vEventGroupSetBitsCallback:
 664              	.LFB12:
 658:FreeRTOS\src/event_groups.c **** 	( void ) xEventGroupSetBits( pvEventGroup, ( EventBits_t ) ulBitsToSet ); /*lint !e9079 Can't avoi
 665              		.loc 1 658 0
 666              		.cfi_startproc
 667              		@ args = 0, pretend = 0, frame = 0
 668              		@ frame_needed = 0, uses_anonymous_args = 0
 669              	.LVL89:
 670 0000 08B5     		push	{r3, lr}
 671              		.cfi_def_cfa_offset 8
ARM GAS  C:\Users\nicol\AppData\Local\Temp\ccglm9UP.s 			page 31


 672              		.cfi_offset 3, -8
 673              		.cfi_offset 14, -4
 659:FreeRTOS\src/event_groups.c **** }
 674              		.loc 1 659 0
 675 0002 FFF7FEFF 		bl	xEventGroupSetBits
 676              	.LVL90:
 677 0006 08BD     		pop	{r3, pc}
 678              		.cfi_endproc
 679              	.LFE12:
 680              		.size	vEventGroupSetBitsCallback, .-vEventGroupSetBitsCallback
 681              		.section	.text.vEventGroupClearBitsCallback,"ax",%progbits
 682              		.align	2
 683              		.global	vEventGroupClearBitsCallback
 684              		.thumb
 685              		.thumb_func
 686              		.type	vEventGroupClearBitsCallback, %function
 687              	vEventGroupClearBitsCallback:
 688              	.LFB13:
 666:FreeRTOS\src/event_groups.c **** 	( void ) xEventGroupClearBits( pvEventGroup, ( EventBits_t ) ulBitsToClear ); /*lint !e9079 Can't 
 689              		.loc 1 666 0
 690              		.cfi_startproc
 691              		@ args = 0, pretend = 0, frame = 0
 692              		@ frame_needed = 0, uses_anonymous_args = 0
 693              	.LVL91:
 694 0000 08B5     		push	{r3, lr}
 695              		.cfi_def_cfa_offset 8
 696              		.cfi_offset 3, -8
 697              		.cfi_offset 14, -4
 667:FreeRTOS\src/event_groups.c **** }
 698              		.loc 1 667 0
 699 0002 FFF7FEFF 		bl	xEventGroupClearBits
 700              	.LVL92:
 701 0006 08BD     		pop	{r3, pc}
 702              		.cfi_endproc
 703              	.LFE13:
 704              		.size	vEventGroupClearBitsCallback, .-vEventGroupClearBitsCallback
 705              		.text
 706              	.Letext0:
 707              		.file 3 "d:\\cypress\\psoc creator\\4.4\\psoc creator\\import\\gnu\\arm\\5.4.1\\arm-none-eabi\\inc
 708              		.file 4 "d:\\cypress\\psoc creator\\4.4\\psoc creator\\import\\gnu\\arm\\5.4.1\\arm-none-eabi\\inc
 709              		.file 5 ".\\FreeRTOS\\include/list.h"
 710              		.file 6 ".\\FreeRTOS\\include/event_groups.h"
 711              		.file 7 ".\\FreeRTOS\\include/portable.h"
 712              		.file 8 ".\\FreeRTOS\\include/task.h"