ARM GAS  C:\Users\nicol\AppData\Local\Temp\cck1thP5.s 			page 1


   1              		.syntax unified
   2              		.cpu cortex-m3
   3              		.fpu softvfp
   4              		.eabi_attribute 20, 1
   5              		.eabi_attribute 21, 1
   6              		.eabi_attribute 23, 3
   7              		.eabi_attribute 24, 1
   8              		.eabi_attribute 25, 1
   9              		.eabi_attribute 26, 1
  10              		.eabi_attribute 30, 1
  11              		.eabi_attribute 34, 1
  12              		.eabi_attribute 18, 4
  13              		.thumb
  14              		.syntax unified
  15              		.file	"list.c"
  16              		.text
  17              	.Ltext0:
  18              		.cfi_sections	.debug_frame
  19              		.section	.text.vListInitialise,"ax",%progbits
  20              		.align	2
  21              		.global	vListInitialise
  22              		.thumb
  23              		.thumb_func
  24              		.type	vListInitialise, %function
  25              	vListInitialise:
  26              	.LFB5:
  27              		.file 1 "FreeRTOS\\src\\list.c"
   1:FreeRTOS\src/list.c **** /*
   2:FreeRTOS\src/list.c ****  * FreeRTOS Kernel V10.1.1
   3:FreeRTOS\src/list.c ****  * Copyright (C) 2018 Amazon.com, Inc. or its affiliates.  All Rights Reserved.
   4:FreeRTOS\src/list.c ****  *
   5:FreeRTOS\src/list.c ****  * Permission is hereby granted, free of charge, to any person obtaining a copy of
   6:FreeRTOS\src/list.c ****  * this software and associated documentation files (the "Software"), to deal in
   7:FreeRTOS\src/list.c ****  * the Software without restriction, including without limitation the rights to
   8:FreeRTOS\src/list.c ****  * use, copy, modify, merge, publish, distribute, sublicense, and/or sell copies of
   9:FreeRTOS\src/list.c ****  * the Software, and to permit persons to whom the Software is furnished to do so,
  10:FreeRTOS\src/list.c ****  * subject to the following conditions:
  11:FreeRTOS\src/list.c ****  *
  12:FreeRTOS\src/list.c ****  * The above copyright notice and this permission notice shall be included in all
  13:FreeRTOS\src/list.c ****  * copies or substantial portions of the Software.
  14:FreeRTOS\src/list.c ****  *
  15:FreeRTOS\src/list.c ****  * THE SOFTWARE IS PROVIDED "AS IS", WITHOUT WARRANTY OF ANY KIND, EXPRESS OR
  16:FreeRTOS\src/list.c ****  * IMPLIED, INCLUDING BUT NOT LIMITED TO THE WARRANTIES OF MERCHANTABILITY, FITNESS
  17:FreeRTOS\src/list.c ****  * FOR A PARTICULAR PURPOSE AND NONINFRINGEMENT. IN NO EVENT SHALL THE AUTHORS OR
  18:FreeRTOS\src/list.c ****  * COPYRIGHT HOLDERS BE LIABLE FOR ANY CLAIM, DAMAGES OR OTHER LIABILITY, WHETHER
  19:FreeRTOS\src/list.c ****  * IN AN ACTION OF CONTRACT, TORT OR OTHERWISE, ARISING FROM, OUT OF OR IN
  20:FreeRTOS\src/list.c ****  * CONNECTION WITH THE SOFTWARE OR THE USE OR OTHER DEALINGS IN THE SOFTWARE.
  21:FreeRTOS\src/list.c ****  *
  22:FreeRTOS\src/list.c ****  * http://www.FreeRTOS.org
  23:FreeRTOS\src/list.c ****  * http://aws.amazon.com/freertos
  24:FreeRTOS\src/list.c ****  *
  25:FreeRTOS\src/list.c ****  * 1 tab == 4 spaces!
  26:FreeRTOS\src/list.c ****  */
  27:FreeRTOS\src/list.c **** 
  28:FreeRTOS\src/list.c **** 
  29:FreeRTOS\src/list.c **** #include <stdlib.h>
  30:FreeRTOS\src/list.c **** #include "FreeRTOS.h"
ARM GAS  C:\Users\nicol\AppData\Local\Temp\cck1thP5.s 			page 2


  31:FreeRTOS\src/list.c **** #include "list.h"
  32:FreeRTOS\src/list.c **** 
  33:FreeRTOS\src/list.c **** /*-----------------------------------------------------------
  34:FreeRTOS\src/list.c ****  * PUBLIC LIST API documented in list.h
  35:FreeRTOS\src/list.c ****  *----------------------------------------------------------*/
  36:FreeRTOS\src/list.c **** 
  37:FreeRTOS\src/list.c **** void vListInitialise( List_t * const pxList )
  38:FreeRTOS\src/list.c **** {
  28              		.loc 1 38 0
  29              		.cfi_startproc
  30              		@ args = 0, pretend = 0, frame = 0
  31              		@ frame_needed = 0, uses_anonymous_args = 0
  32              		@ link register save eliminated.
  33              	.LVL0:
  39:FreeRTOS\src/list.c **** 	/* The list structure contains a list item which is used to mark the
  40:FreeRTOS\src/list.c **** 	end of the list.  To initialise the list the list end is inserted
  41:FreeRTOS\src/list.c **** 	as the only list entry. */
  42:FreeRTOS\src/list.c **** 	pxList->pxIndex = ( ListItem_t * ) &( pxList->xListEnd );			/*lint !e826 !e740 !e9087 The mini lis
  34              		.loc 1 42 0
  35 0000 00F10803 		add	r3, r0, #8
  36 0004 4360     		str	r3, [r0, #4]
  43:FreeRTOS\src/list.c **** 
  44:FreeRTOS\src/list.c **** 	/* The list end value is the highest possible value in the list to
  45:FreeRTOS\src/list.c **** 	ensure it remains at the end of the list. */
  46:FreeRTOS\src/list.c **** 	pxList->xListEnd.xItemValue = portMAX_DELAY;
  37              		.loc 1 46 0
  38 0006 4FF0FF32 		mov	r2, #-1
  39 000a 8260     		str	r2, [r0, #8]
  47:FreeRTOS\src/list.c **** 
  48:FreeRTOS\src/list.c **** 	/* The list end next and previous pointers point to itself so we know
  49:FreeRTOS\src/list.c **** 	when the list is empty. */
  50:FreeRTOS\src/list.c **** 	pxList->xListEnd.pxNext = ( ListItem_t * ) &( pxList->xListEnd );	/*lint !e826 !e740 !e9087 The mi
  40              		.loc 1 50 0
  41 000c C360     		str	r3, [r0, #12]
  51:FreeRTOS\src/list.c **** 	pxList->xListEnd.pxPrevious = ( ListItem_t * ) &( pxList->xListEnd );/*lint !e826 !e740 !e9087 The
  42              		.loc 1 51 0
  43 000e 0361     		str	r3, [r0, #16]
  52:FreeRTOS\src/list.c **** 
  53:FreeRTOS\src/list.c **** 	pxList->uxNumberOfItems = ( UBaseType_t ) 0U;
  44              		.loc 1 53 0
  45 0010 0023     		movs	r3, #0
  46 0012 0360     		str	r3, [r0]
  47 0014 7047     		bx	lr
  48              		.cfi_endproc
  49              	.LFE5:
  50              		.size	vListInitialise, .-vListInitialise
  51 0016 00BF     		.section	.text.vListInitialiseItem,"ax",%progbits
  52              		.align	2
  53              		.global	vListInitialiseItem
  54              		.thumb
  55              		.thumb_func
  56              		.type	vListInitialiseItem, %function
  57              	vListInitialiseItem:
  58              	.LFB6:
  54:FreeRTOS\src/list.c **** 
  55:FreeRTOS\src/list.c **** 	/* Write known values into the list if
  56:FreeRTOS\src/list.c **** 	configUSE_LIST_DATA_INTEGRITY_CHECK_BYTES is set to 1. */
ARM GAS  C:\Users\nicol\AppData\Local\Temp\cck1thP5.s 			page 3


  57:FreeRTOS\src/list.c **** 	listSET_LIST_INTEGRITY_CHECK_1_VALUE( pxList );
  58:FreeRTOS\src/list.c **** 	listSET_LIST_INTEGRITY_CHECK_2_VALUE( pxList );
  59:FreeRTOS\src/list.c **** }
  60:FreeRTOS\src/list.c **** /*-----------------------------------------------------------*/
  61:FreeRTOS\src/list.c **** 
  62:FreeRTOS\src/list.c **** void vListInitialiseItem( ListItem_t * const pxItem )
  63:FreeRTOS\src/list.c **** {
  59              		.loc 1 63 0
  60              		.cfi_startproc
  61              		@ args = 0, pretend = 0, frame = 0
  62              		@ frame_needed = 0, uses_anonymous_args = 0
  63              		@ link register save eliminated.
  64              	.LVL1:
  64:FreeRTOS\src/list.c **** 	/* Make sure the list item is not recorded as being on a list. */
  65:FreeRTOS\src/list.c **** 	pxItem->pxContainer = NULL;
  65              		.loc 1 65 0
  66 0000 0023     		movs	r3, #0
  67 0002 0361     		str	r3, [r0, #16]
  68 0004 7047     		bx	lr
  69              		.cfi_endproc
  70              	.LFE6:
  71              		.size	vListInitialiseItem, .-vListInitialiseItem
  72 0006 00BF     		.section	.text.vListInsertEnd,"ax",%progbits
  73              		.align	2
  74              		.global	vListInsertEnd
  75              		.thumb
  76              		.thumb_func
  77              		.type	vListInsertEnd, %function
  78              	vListInsertEnd:
  79              	.LFB7:
  66:FreeRTOS\src/list.c **** 
  67:FreeRTOS\src/list.c **** 	/* Write known values into the list item if
  68:FreeRTOS\src/list.c **** 	configUSE_LIST_DATA_INTEGRITY_CHECK_BYTES is set to 1. */
  69:FreeRTOS\src/list.c **** 	listSET_FIRST_LIST_ITEM_INTEGRITY_CHECK_VALUE( pxItem );
  70:FreeRTOS\src/list.c **** 	listSET_SECOND_LIST_ITEM_INTEGRITY_CHECK_VALUE( pxItem );
  71:FreeRTOS\src/list.c **** }
  72:FreeRTOS\src/list.c **** /*-----------------------------------------------------------*/
  73:FreeRTOS\src/list.c **** 
  74:FreeRTOS\src/list.c **** void vListInsertEnd( List_t * const pxList, ListItem_t * const pxNewListItem )
  75:FreeRTOS\src/list.c **** {
  80              		.loc 1 75 0
  81              		.cfi_startproc
  82              		@ args = 0, pretend = 0, frame = 0
  83              		@ frame_needed = 0, uses_anonymous_args = 0
  84              		@ link register save eliminated.
  85              	.LVL2:
  76:FreeRTOS\src/list.c **** ListItem_t * const pxIndex = pxList->pxIndex;
  86              		.loc 1 76 0
  87 0000 4368     		ldr	r3, [r0, #4]
  88              	.LVL3:
  77:FreeRTOS\src/list.c **** 
  78:FreeRTOS\src/list.c **** 	/* Only effective when configASSERT() is also defined, these tests may catch
  79:FreeRTOS\src/list.c **** 	the list data structures being overwritten in memory.  They will not catch
  80:FreeRTOS\src/list.c **** 	data errors caused by incorrect configuration or use of FreeRTOS. */
  81:FreeRTOS\src/list.c **** 	listTEST_LIST_INTEGRITY( pxList );
  82:FreeRTOS\src/list.c **** 	listTEST_LIST_ITEM_INTEGRITY( pxNewListItem );
  83:FreeRTOS\src/list.c **** 
ARM GAS  C:\Users\nicol\AppData\Local\Temp\cck1thP5.s 			page 4


  84:FreeRTOS\src/list.c **** 	/* Insert a new list item into pxList, but rather than sort the list,
  85:FreeRTOS\src/list.c **** 	makes the new list item the last item to be removed by a call to
  86:FreeRTOS\src/list.c **** 	listGET_OWNER_OF_NEXT_ENTRY(). */
  87:FreeRTOS\src/list.c **** 	pxNewListItem->pxNext = pxIndex;
  89              		.loc 1 87 0
  90 0002 4B60     		str	r3, [r1, #4]
  88:FreeRTOS\src/list.c **** 	pxNewListItem->pxPrevious = pxIndex->pxPrevious;
  91              		.loc 1 88 0
  92 0004 9A68     		ldr	r2, [r3, #8]
  93 0006 8A60     		str	r2, [r1, #8]
  89:FreeRTOS\src/list.c **** 
  90:FreeRTOS\src/list.c **** 	/* Only used during decision coverage testing. */
  91:FreeRTOS\src/list.c **** 	mtCOVERAGE_TEST_DELAY();
  92:FreeRTOS\src/list.c **** 
  93:FreeRTOS\src/list.c **** 	pxIndex->pxPrevious->pxNext = pxNewListItem;
  94              		.loc 1 93 0
  95 0008 9A68     		ldr	r2, [r3, #8]
  96 000a 5160     		str	r1, [r2, #4]
  94:FreeRTOS\src/list.c **** 	pxIndex->pxPrevious = pxNewListItem;
  97              		.loc 1 94 0
  98 000c 9960     		str	r1, [r3, #8]
  95:FreeRTOS\src/list.c **** 
  96:FreeRTOS\src/list.c **** 	/* Remember which list the item is in. */
  97:FreeRTOS\src/list.c **** 	pxNewListItem->pxContainer = pxList;
  99              		.loc 1 97 0
 100 000e 0861     		str	r0, [r1, #16]
  98:FreeRTOS\src/list.c **** 
  99:FreeRTOS\src/list.c **** 	( pxList->uxNumberOfItems )++;
 101              		.loc 1 99 0
 102 0010 0368     		ldr	r3, [r0]
 103              	.LVL4:
 104 0012 0133     		adds	r3, r3, #1
 105 0014 0360     		str	r3, [r0]
 106 0016 7047     		bx	lr
 107              		.cfi_endproc
 108              	.LFE7:
 109              		.size	vListInsertEnd, .-vListInsertEnd
 110              		.section	.text.vListInsert,"ax",%progbits
 111              		.align	2
 112              		.global	vListInsert
 113              		.thumb
 114              		.thumb_func
 115              		.type	vListInsert, %function
 116              	vListInsert:
 117              	.LFB8:
 100:FreeRTOS\src/list.c **** }
 101:FreeRTOS\src/list.c **** /*-----------------------------------------------------------*/
 102:FreeRTOS\src/list.c **** 
 103:FreeRTOS\src/list.c **** void vListInsert( List_t * const pxList, ListItem_t * const pxNewListItem )
 104:FreeRTOS\src/list.c **** {
 118              		.loc 1 104 0
 119              		.cfi_startproc
 120              		@ args = 0, pretend = 0, frame = 0
 121              		@ frame_needed = 0, uses_anonymous_args = 0
 122              		@ link register save eliminated.
 123              	.LVL5:
 124 0000 30B4     		push	{r4, r5}
ARM GAS  C:\Users\nicol\AppData\Local\Temp\cck1thP5.s 			page 5


 125              		.cfi_def_cfa_offset 8
 126              		.cfi_offset 4, -8
 127              		.cfi_offset 5, -4
 105:FreeRTOS\src/list.c **** ListItem_t *pxIterator;
 106:FreeRTOS\src/list.c **** const TickType_t xValueOfInsertion = pxNewListItem->xItemValue;
 128              		.loc 1 106 0
 129 0002 0D68     		ldr	r5, [r1]
 130              	.LVL6:
 107:FreeRTOS\src/list.c **** 
 108:FreeRTOS\src/list.c **** 	/* Only effective when configASSERT() is also defined, these tests may catch
 109:FreeRTOS\src/list.c **** 	the list data structures being overwritten in memory.  They will not catch
 110:FreeRTOS\src/list.c **** 	data errors caused by incorrect configuration or use of FreeRTOS. */
 111:FreeRTOS\src/list.c **** 	listTEST_LIST_INTEGRITY( pxList );
 112:FreeRTOS\src/list.c **** 	listTEST_LIST_ITEM_INTEGRITY( pxNewListItem );
 113:FreeRTOS\src/list.c **** 
 114:FreeRTOS\src/list.c **** 	/* Insert the new list item into the list, sorted in xItemValue order.
 115:FreeRTOS\src/list.c **** 
 116:FreeRTOS\src/list.c **** 	If the list already contains a list item with the same item value then the
 117:FreeRTOS\src/list.c **** 	new list item should be placed after it.  This ensures that TCBs which are
 118:FreeRTOS\src/list.c **** 	stored in ready lists (all of which have the same xItemValue value) get a
 119:FreeRTOS\src/list.c **** 	share of the CPU.  However, if the xItemValue is the same as the back marker
 120:FreeRTOS\src/list.c **** 	the iteration loop below will not end.  Therefore the value is checked
 121:FreeRTOS\src/list.c **** 	first, and the algorithm slightly modified if necessary. */
 122:FreeRTOS\src/list.c **** 	if( xValueOfInsertion == portMAX_DELAY )
 131              		.loc 1 122 0
 132 0004 B5F1FF3F 		cmp	r5, #-1
 133 0008 01D1     		bne	.L5
 123:FreeRTOS\src/list.c **** 	{
 124:FreeRTOS\src/list.c **** 		pxIterator = pxList->xListEnd.pxPrevious;
 134              		.loc 1 124 0
 135 000a 0269     		ldr	r2, [r0, #16]
 136              	.LVL7:
 137 000c 07E0     		b	.L6
 138              	.LVL8:
 139              	.L5:
 125:FreeRTOS\src/list.c **** 	}
 126:FreeRTOS\src/list.c **** 	else
 127:FreeRTOS\src/list.c **** 	{
 128:FreeRTOS\src/list.c **** 		/* *** NOTE ***********************************************************
 129:FreeRTOS\src/list.c **** 		If you find your application is crashing here then likely causes are
 130:FreeRTOS\src/list.c **** 		listed below.  In addition see https://www.freertos.org/FAQHelp.html for
 131:FreeRTOS\src/list.c **** 		more tips, and ensure configASSERT() is defined!
 132:FreeRTOS\src/list.c **** 		https://www.freertos.org/a00110.html#configASSERT
 133:FreeRTOS\src/list.c **** 
 134:FreeRTOS\src/list.c **** 			1) Stack overflow -
 135:FreeRTOS\src/list.c **** 			   see https://www.freertos.org/Stacks-and-stack-overflow-checking.html
 136:FreeRTOS\src/list.c **** 			2) Incorrect interrupt priority assignment, especially on Cortex-M
 137:FreeRTOS\src/list.c **** 			   parts where numerically high priority values denote low actual
 138:FreeRTOS\src/list.c **** 			   interrupt priorities, which can seem counter intuitive.  See
 139:FreeRTOS\src/list.c **** 			   https://www.freertos.org/RTOS-Cortex-M3-M4.html and the definition
 140:FreeRTOS\src/list.c **** 			   of configMAX_SYSCALL_INTERRUPT_PRIORITY on
 141:FreeRTOS\src/list.c **** 			   https://www.freertos.org/a00110.html
 142:FreeRTOS\src/list.c **** 			3) Calling an API function from within a critical section or when
 143:FreeRTOS\src/list.c **** 			   the scheduler is suspended, or calling an API function that does
 144:FreeRTOS\src/list.c **** 			   not end in "FromISR" from an interrupt.
 145:FreeRTOS\src/list.c **** 			4) Using a queue or semaphore before it has been initialised or
 146:FreeRTOS\src/list.c **** 			   before the scheduler has been started (are interrupts firing
ARM GAS  C:\Users\nicol\AppData\Local\Temp\cck1thP5.s 			page 6


 147:FreeRTOS\src/list.c **** 			   before vTaskStartScheduler() has been called?).
 148:FreeRTOS\src/list.c **** 		**********************************************************************/
 149:FreeRTOS\src/list.c **** 
 150:FreeRTOS\src/list.c **** 		for( pxIterator = ( ListItem_t * ) &( pxList->xListEnd ); pxIterator->pxNext->xItemValue <= xValu
 140              		.loc 1 150 0
 141 000e 00F10802 		add	r2, r0, #8
 142              	.LVL9:
 143 0012 00E0     		b	.L7
 144              	.L8:
 145 0014 1A46     		mov	r2, r3
 146              	.LVL10:
 147              	.L7:
 148              		.loc 1 150 0 is_stmt 0 discriminator 1
 149 0016 5368     		ldr	r3, [r2, #4]
 150 0018 1C68     		ldr	r4, [r3]
 151 001a A542     		cmp	r5, r4
 152 001c FAD2     		bcs	.L8
 153              	.L6:
 151:FreeRTOS\src/list.c **** 		{
 152:FreeRTOS\src/list.c **** 			/* There is nothing to do here, just iterating to the wanted
 153:FreeRTOS\src/list.c **** 			insertion position. */
 154:FreeRTOS\src/list.c **** 		}
 155:FreeRTOS\src/list.c **** 	}
 156:FreeRTOS\src/list.c **** 
 157:FreeRTOS\src/list.c **** 	pxNewListItem->pxNext = pxIterator->pxNext;
 154              		.loc 1 157 0 is_stmt 1
 155 001e 5368     		ldr	r3, [r2, #4]
 156 0020 4B60     		str	r3, [r1, #4]
 158:FreeRTOS\src/list.c **** 	pxNewListItem->pxNext->pxPrevious = pxNewListItem;
 157              		.loc 1 158 0
 158 0022 9960     		str	r1, [r3, #8]
 159:FreeRTOS\src/list.c **** 	pxNewListItem->pxPrevious = pxIterator;
 159              		.loc 1 159 0
 160 0024 8A60     		str	r2, [r1, #8]
 160:FreeRTOS\src/list.c **** 	pxIterator->pxNext = pxNewListItem;
 161              		.loc 1 160 0
 162 0026 5160     		str	r1, [r2, #4]
 161:FreeRTOS\src/list.c **** 
 162:FreeRTOS\src/list.c **** 	/* Remember which list the item is in.  This allows fast removal of the
 163:FreeRTOS\src/list.c **** 	item later. */
 164:FreeRTOS\src/list.c **** 	pxNewListItem->pxContainer = pxList;
 163              		.loc 1 164 0
 164 0028 0861     		str	r0, [r1, #16]
 165:FreeRTOS\src/list.c **** 
 166:FreeRTOS\src/list.c **** 	( pxList->uxNumberOfItems )++;
 165              		.loc 1 166 0
 166 002a 0368     		ldr	r3, [r0]
 167 002c 0133     		adds	r3, r3, #1
 168 002e 0360     		str	r3, [r0]
 167:FreeRTOS\src/list.c **** }
 169              		.loc 1 167 0
 170 0030 30BC     		pop	{r4, r5}
 171              		.cfi_restore 5
 172              		.cfi_restore 4
 173              		.cfi_def_cfa_offset 0
 174              	.LVL11:
 175 0032 7047     		bx	lr
ARM GAS  C:\Users\nicol\AppData\Local\Temp\cck1thP5.s 			page 7


 176              		.cfi_endproc
 177              	.LFE8:
 178              		.size	vListInsert, .-vListInsert
 179              		.section	.text.uxListRemove,"ax",%progbits
 180              		.align	2
 181              		.global	uxListRemove
 182              		.thumb
 183              		.thumb_func
 184              		.type	uxListRemove, %function
 185              	uxListRemove:
 186              	.LFB9:
 168:FreeRTOS\src/list.c **** /*-----------------------------------------------------------*/
 169:FreeRTOS\src/list.c **** 
 170:FreeRTOS\src/list.c **** UBaseType_t uxListRemove( ListItem_t * const pxItemToRemove )
 171:FreeRTOS\src/list.c **** {
 187              		.loc 1 171 0
 188              		.cfi_startproc
 189              		@ args = 0, pretend = 0, frame = 0
 190              		@ frame_needed = 0, uses_anonymous_args = 0
 191              		@ link register save eliminated.
 192              	.LVL12:
 172:FreeRTOS\src/list.c **** /* The list item knows which list it is in.  Obtain the list from the list
 173:FreeRTOS\src/list.c **** item. */
 174:FreeRTOS\src/list.c **** List_t * const pxList = pxItemToRemove->pxContainer;
 193              		.loc 1 174 0
 194 0000 0369     		ldr	r3, [r0, #16]
 195              	.LVL13:
 175:FreeRTOS\src/list.c **** 
 176:FreeRTOS\src/list.c **** 	pxItemToRemove->pxNext->pxPrevious = pxItemToRemove->pxPrevious;
 196              		.loc 1 176 0
 197 0002 4268     		ldr	r2, [r0, #4]
 198 0004 8168     		ldr	r1, [r0, #8]
 199 0006 9160     		str	r1, [r2, #8]
 177:FreeRTOS\src/list.c **** 	pxItemToRemove->pxPrevious->pxNext = pxItemToRemove->pxNext;
 200              		.loc 1 177 0
 201 0008 8268     		ldr	r2, [r0, #8]
 202 000a 4168     		ldr	r1, [r0, #4]
 203 000c 5160     		str	r1, [r2, #4]
 178:FreeRTOS\src/list.c **** 
 179:FreeRTOS\src/list.c **** 	/* Only used during decision coverage testing. */
 180:FreeRTOS\src/list.c **** 	mtCOVERAGE_TEST_DELAY();
 181:FreeRTOS\src/list.c **** 
 182:FreeRTOS\src/list.c **** 	/* Make sure the index is left pointing to a valid item. */
 183:FreeRTOS\src/list.c **** 	if( pxList->pxIndex == pxItemToRemove )
 204              		.loc 1 183 0
 205 000e 5A68     		ldr	r2, [r3, #4]
 206 0010 9042     		cmp	r0, r2
 207 0012 01D1     		bne	.L11
 184:FreeRTOS\src/list.c **** 	{
 185:FreeRTOS\src/list.c **** 		pxList->pxIndex = pxItemToRemove->pxPrevious;
 208              		.loc 1 185 0
 209 0014 8268     		ldr	r2, [r0, #8]
 210 0016 5A60     		str	r2, [r3, #4]
 211              	.L11:
 186:FreeRTOS\src/list.c **** 	}
 187:FreeRTOS\src/list.c **** 	else
 188:FreeRTOS\src/list.c **** 	{
ARM GAS  C:\Users\nicol\AppData\Local\Temp\cck1thP5.s 			page 8


 189:FreeRTOS\src/list.c **** 		mtCOVERAGE_TEST_MARKER();
 190:FreeRTOS\src/list.c **** 	}
 191:FreeRTOS\src/list.c **** 
 192:FreeRTOS\src/list.c **** 	pxItemToRemove->pxContainer = NULL;
 212              		.loc 1 192 0
 213 0018 0022     		movs	r2, #0
 214 001a 0261     		str	r2, [r0, #16]
 193:FreeRTOS\src/list.c **** 	( pxList->uxNumberOfItems )--;
 215              		.loc 1 193 0
 216 001c 1A68     		ldr	r2, [r3]
 217 001e 013A     		subs	r2, r2, #1
 218 0020 1A60     		str	r2, [r3]
 194:FreeRTOS\src/list.c **** 
 195:FreeRTOS\src/list.c **** 	return pxList->uxNumberOfItems;
 219              		.loc 1 195 0
 220 0022 1868     		ldr	r0, [r3]
 221              	.LVL14:
 196:FreeRTOS\src/list.c **** }
 222              		.loc 1 196 0
 223 0024 7047     		bx	lr
 224              		.cfi_endproc
 225              	.LFE9:
 226              		.size	uxListRemove, .-uxListRemove
 227 0026 00BF     		.text
 228              	.Letext0:
 229              		.file 2 "d:\\cypress\\psoc creator\\4.4\\psoc creator\\import\\gnu\\arm\\5.4.1\\arm-none-eabi\\inc
 230              		.file 3 "d:\\cypress\\psoc creator\\4.4\\psoc creator\\import\\gnu\\arm\\5.4.1\\arm-none-eabi\\inc
 231              		.file 4 ".\\FreeRTOS\\include/portmacro.h"
 232              		.file 5 ".\\FreeRTOS\\include/list.h"