ARM GAS  C:\Users\nicol\AppData\Local\Temp\ccbU7BrW.s 			page 1


   1              		.syntax unified
   2              		.cpu cortex-m3
   3              		.fpu softvfp
   4              		.eabi_attribute 20, 1
   5              		.eabi_attribute 21, 1
   6              		.eabi_attribute 23, 3
   7              		.eabi_attribute 24, 1
   8              		.eabi_attribute 25, 1
   9              		.eabi_attribute 26, 1
  10              		.eabi_attribute 30, 1
  11              		.eabi_attribute 34, 1
  12              		.eabi_attribute 18, 4
  13              		.thumb
  14              		.syntax unified
  15              		.file	"main.c"
  16              		.text
  17              	.Ltext0:
  18              		.cfi_sections	.debug_frame
  19              		.section	.text.freeRTOSInit,"ax",%progbits
  20              		.align	2
  21              		.thumb
  22              		.thumb_func
  23              		.type	freeRTOSInit, %function
  24              	freeRTOSInit:
  25              	.LFB69:
  26              		.file 1 "main.c"
   1:main.c        **** /* ========================================
   2:main.c        ****  *
   3:main.c        ****  *              ELECH410 labs
   4:main.c        ****  *          FreeRTOS example code
   5:main.c        ****  * 
   6:main.c        ****  *                   2019
   7:main.c        ****  *
   8:main.c        ****  * ========================================
   9:main.c        **** */
  10:main.c        **** #include "project.h"
  11:main.c        **** 
  12:main.c        **** /* RTOS includes. */
  13:main.c        **** #include "FreeRTOS.h"
  14:main.c        **** #include "task.h"
  15:main.c        **** #include "timers.h"
  16:main.c        **** #include "queue.h"
  17:main.c        **** #include "semphr.h"
  18:main.c        **** 
  19:main.c        **** #define TASK_STACK_SIZE      (1024)
  20:main.c        **** 
  21:main.c        **** /* Task definitions */
  22:main.c        **** #define TASK1_NAME           ("Task 1")
  23:main.c        **** #define TASK2_NAME           ("Task 2")
  24:main.c        **** #define TASK3_NAME           ("Task 3")
  25:main.c        **** 
  26:main.c        **** #define TASK1_PRIORITY       (3)
  27:main.c        **** #define TASK2_PRIORITY       (4)
  28:main.c        **** #define TASK3_PRIORITY       (5)
  29:main.c        **** 
  30:main.c        **** #define TASK1_PERIOD         (10)
  31:main.c        **** #define TASK2_PERIOD         (50)
ARM GAS  C:\Users\nicol\AppData\Local\Temp\ccbU7BrW.s 			page 2


  32:main.c        **** #define TASK3_PERIOD         (100)
  33:main.c        **** 
  34:main.c        **** //Macro that allows to preempt the task to respect the period
  35:main.c        **** #define REFINE(val) val - (xTaskGetTickCount()%val)
  36:main.c        **** 
  37:main.c        **** /* Task prototypes */
  38:main.c        **** void task1( void * );
  39:main.c        **** void task2( void * );
  40:main.c        **** void task3( void * );
  41:main.c        **** 
  42:main.c        **** /* Task handlers */
  43:main.c        **** TaskHandle_t task1Handler; 
  44:main.c        **** TaskHandle_t task2Handler; 
  45:main.c        **** TaskHandle_t task3Handler;
  46:main.c        **** 
  47:main.c        **** /* Function prototypes */
  48:main.c        **** /*
  49:main.c        ****  * Installs the RTOS interrupt handlers.
  50:main.c        ****  */
  51:main.c        **** static void freeRTOSInit( void );
  52:main.c        **** 
  53:main.c        **** int main(void)
  54:main.c        **** {
  55:main.c        ****     /* Enable global interrupts. */
  56:main.c        ****     //CyGlobalIntEnable; 
  57:main.c        ****     
  58:main.c        ****     freeRTOSInit();
  59:main.c        ****     
  60:main.c        ****     /* Place your initialization/startup code here (e.g. MyInst_Start()) */
  61:main.c        ****     // ...
  62:main.c        ****     
  63:main.c        ****     // Create tasks
  64:main.c        ****     xTaskCreate( task1, TASK1_NAME, TASK_STACK_SIZE, NULL, TASK1_PRIORITY, &task1Handler );
  65:main.c        ****     xTaskCreate( task2, TASK2_NAME, TASK_STACK_SIZE, NULL, TASK2_PRIORITY, &task2Handler );
  66:main.c        ****     xTaskCreate( task3, TASK3_NAME, TASK_STACK_SIZE, NULL, TASK3_PRIORITY, &task3Handler );
  67:main.c        ****     
  68:main.c        ****     // Launch freeRTOS
  69:main.c        ****     vTaskStartScheduler();     
  70:main.c        ****     
  71:main.c        ****     for(;;)
  72:main.c        ****     {
  73:main.c        ****     }
  74:main.c        **** }
  75:main.c        **** 
  76:main.c        **** void freeRTOSInit( void )
  77:main.c        **** {
  27              		.loc 1 77 0
  28              		.cfi_startproc
  29              		@ args = 0, pretend = 0, frame = 0
  30              		@ frame_needed = 0, uses_anonymous_args = 0
  31              		@ link register save eliminated.
  78:main.c        **** /* Port layer functions that need to be copied into the vector table. */
  79:main.c        **** extern void xPortPendSVHandler( void );
  80:main.c        **** extern void xPortSysTickHandler( void );
  81:main.c        **** extern void vPortSVCHandler( void );
  82:main.c        **** extern cyisraddress CyRamVectors[];
  83:main.c        **** 
ARM GAS  C:\Users\nicol\AppData\Local\Temp\ccbU7BrW.s 			page 3


  84:main.c        **** 	/* Install the OS Interrupt Handlers. */
  85:main.c        **** 	CyRamVectors[ 11 ] = ( cyisraddress ) vPortSVCHandler;
  32              		.loc 1 85 0
  33 0000 034B     		ldr	r3, .L2
  34 0002 044A     		ldr	r2, .L2+4
  35 0004 DA62     		str	r2, [r3, #44]
  86:main.c        **** 	CyRamVectors[ 14 ] = ( cyisraddress ) xPortPendSVHandler;
  36              		.loc 1 86 0
  37 0006 044A     		ldr	r2, .L2+8
  38 0008 9A63     		str	r2, [r3, #56]
  87:main.c        **** 	CyRamVectors[ 15 ] = ( cyisraddress ) xPortSysTickHandler;
  39              		.loc 1 87 0
  40 000a 044A     		ldr	r2, .L2+12
  41 000c DA63     		str	r2, [r3, #60]
  42 000e 7047     		bx	lr
  43              	.L3:
  44              		.align	2
  45              	.L2:
  46 0010 00000000 		.word	CyRamVectors
  47 0014 00000000 		.word	vPortSVCHandler
  48 0018 00000000 		.word	xPortPendSVHandler
  49 001c 00000000 		.word	xPortSysTickHandler
  50              		.cfi_endproc
  51              	.LFE69:
  52              		.size	freeRTOSInit, .-freeRTOSInit
  53              		.section	.text.task1,"ax",%progbits
  54              		.align	2
  55              		.global	task1
  56              		.thumb
  57              		.thumb_func
  58              		.type	task1, %function
  59              	task1:
  60              	.LFB70:
  88:main.c        **** }
  89:main.c        **** 
  90:main.c        **** void task1( void *arg )
  91:main.c        **** {
  61              		.loc 1 91 0
  62              		.cfi_startproc
  63              		@ args = 0, pretend = 0, frame = 0
  64              		@ frame_needed = 0, uses_anonymous_args = 0
  65              	.LVL0:
  66 0000 10B5     		push	{r4, lr}
  67              		.cfi_def_cfa_offset 8
  68              		.cfi_offset 4, -8
  69              		.cfi_offset 14, -4
  70              	.LVL1:
  71              	.L7:
  92:main.c        ****     (void)arg;
  93:main.c        ****     
  94:main.c        ****     for(;;)
  95:main.c        ****     {
  96:main.c        ****         GPIOJ11_Write(1u);
  72              		.loc 1 96 0
  73 0002 0120     		movs	r0, #1
  74 0004 FFF7FEFF 		bl	GPIOJ11_Write
  75              	.LVL2:
ARM GAS  C:\Users\nicol\AppData\Local\Temp\ccbU7BrW.s 			page 4


  76              	.LBB2:
  97:main.c        **** 
  98:main.c        ****         for (int i=0; i<1000;i++){
  77              		.loc 1 98 0
  78 0008 0024     		movs	r4, #0
  79 000a 07E0     		b	.L5
  80              	.LVL3:
  81              	.L6:
  99:main.c        ****             GPIOJ11_Write(!GPIOJ11_Read());
  82              		.loc 1 99 0 discriminator 3
  83 000c FFF7FEFF 		bl	GPIOJ11_Read
  84              	.LVL4:
  85 0010 B0FA80F0 		clz	r0, r0
  86 0014 4009     		lsrs	r0, r0, #5
  87 0016 FFF7FEFF 		bl	GPIOJ11_Write
  88              	.LVL5:
  98:main.c        ****             GPIOJ11_Write(!GPIOJ11_Read());
  89              		.loc 1 98 0 discriminator 3
  90 001a 0134     		adds	r4, r4, #1
  91              	.LVL6:
  92              	.L5:
  98:main.c        ****             GPIOJ11_Write(!GPIOJ11_Read());
  93              		.loc 1 98 0 is_stmt 0 discriminator 1
  94 001c B4F57A7F 		cmp	r4, #1000
  95 0020 F4DB     		blt	.L6
  96              	.LBE2:
 100:main.c        ****         }
 101:main.c        **** 
 102:main.c        ****         GPIOJ11_Write(0);
  97              		.loc 1 102 0 is_stmt 1
  98 0022 0020     		movs	r0, #0
  99 0024 FFF7FEFF 		bl	GPIOJ11_Write
 100              	.LVL7:
 103:main.c        **** 
 104:main.c        ****         vTaskDelay(REFINE(TASK1_PERIOD));
 101              		.loc 1 104 0
 102 0028 FFF7FEFF 		bl	xTaskGetTickCount
 103              	.LVL8:
 104 002c 064B     		ldr	r3, .L9
 105 002e A3FB0023 		umull	r2, r3, r3, r0
 106 0032 DB08     		lsrs	r3, r3, #3
 107 0034 03EB8303 		add	r3, r3, r3, lsl #2
 108 0038 5A00     		lsls	r2, r3, #1
 109 003a 831A     		subs	r3, r0, r2
 110 003c C3F10A00 		rsb	r0, r3, #10
 111 0040 FFF7FEFF 		bl	vTaskDelay
 112              	.LVL9:
 105:main.c        ****     }
 113              		.loc 1 105 0
 114 0044 DDE7     		b	.L7
 115              	.L10:
 116 0046 00BF     		.align	2
 117              	.L9:
 118 0048 CDCCCCCC 		.word	-858993459
 119              		.cfi_endproc
 120              	.LFE70:
 121              		.size	task1, .-task1
ARM GAS  C:\Users\nicol\AppData\Local\Temp\ccbU7BrW.s 			page 5


 122              		.section	.text.task2,"ax",%progbits
 123              		.align	2
 124              		.global	task2
 125              		.thumb
 126              		.thumb_func
 127              		.type	task2, %function
 128              	task2:
 129              	.LFB71:
 106:main.c        **** }
 107:main.c        **** 
 108:main.c        **** void task2( void *arg )
 109:main.c        **** {
 130              		.loc 1 109 0
 131              		.cfi_startproc
 132              		@ args = 0, pretend = 0, frame = 0
 133              		@ frame_needed = 0, uses_anonymous_args = 0
 134              	.LVL10:
 135 0000 10B5     		push	{r4, lr}
 136              		.cfi_def_cfa_offset 8
 137              		.cfi_offset 4, -8
 138              		.cfi_offset 14, -4
 139              	.LVL11:
 140              	.L14:
 110:main.c        ****     (void)arg;
 111:main.c        ****     
 112:main.c        ****     for(;;)
 113:main.c        ****     {
 114:main.c        ****         GPIOJ12_Write(1u);
 141              		.loc 1 114 0
 142 0002 0120     		movs	r0, #1
 143 0004 FFF7FEFF 		bl	GPIOJ12_Write
 144              	.LVL12:
 145              	.LBB3:
 115:main.c        ****         
 116:main.c        ****         for (int i=0; i<2000;i++){
 146              		.loc 1 116 0
 147 0008 0024     		movs	r4, #0
 148 000a 07E0     		b	.L12
 149              	.LVL13:
 150              	.L13:
 117:main.c        ****             GPIOJ12_Write(!GPIOJ12_Read());
 151              		.loc 1 117 0 discriminator 3
 152 000c FFF7FEFF 		bl	GPIOJ12_Read
 153              	.LVL14:
 154 0010 B0FA80F0 		clz	r0, r0
 155 0014 4009     		lsrs	r0, r0, #5
 156 0016 FFF7FEFF 		bl	GPIOJ12_Write
 157              	.LVL15:
 116:main.c        ****             GPIOJ12_Write(!GPIOJ12_Read());
 158              		.loc 1 116 0 discriminator 3
 159 001a 0134     		adds	r4, r4, #1
 160              	.LVL16:
 161              	.L12:
 116:main.c        ****             GPIOJ12_Write(!GPIOJ12_Read());
 162              		.loc 1 116 0 is_stmt 0 discriminator 1
 163 001c B4F5FA6F 		cmp	r4, #2000
 164 0020 F4DB     		blt	.L13
ARM GAS  C:\Users\nicol\AppData\Local\Temp\ccbU7BrW.s 			page 6


 165              	.LBE3:
 118:main.c        ****         }
 119:main.c        ****         
 120:main.c        ****         GPIOJ12_Write(0);
 166              		.loc 1 120 0 is_stmt 1
 167 0022 0020     		movs	r0, #0
 168 0024 FFF7FEFF 		bl	GPIOJ12_Write
 169              	.LVL17:
 121:main.c        ****         
 122:main.c        ****         vTaskDelay(REFINE(TASK2_PERIOD));
 170              		.loc 1 122 0
 171 0028 FFF7FEFF 		bl	xTaskGetTickCount
 172              	.LVL18:
 173 002c 054B     		ldr	r3, .L16
 174 002e A3FB0023 		umull	r2, r3, r3, r0
 175 0032 1B09     		lsrs	r3, r3, #4
 176 0034 3222     		movs	r2, #50
 177 0036 02FB1303 		mls	r3, r2, r3, r0
 178 003a D01A     		subs	r0, r2, r3
 179 003c FFF7FEFF 		bl	vTaskDelay
 180              	.LVL19:
 123:main.c        ****     }
 181              		.loc 1 123 0
 182 0040 DFE7     		b	.L14
 183              	.L17:
 184 0042 00BF     		.align	2
 185              	.L16:
 186 0044 1F85EB51 		.word	1374389535
 187              		.cfi_endproc
 188              	.LFE71:
 189              		.size	task2, .-task2
 190              		.section	.text.task3,"ax",%progbits
 191              		.align	2
 192              		.global	task3
 193              		.thumb
 194              		.thumb_func
 195              		.type	task3, %function
 196              	task3:
 197              	.LFB72:
 124:main.c        **** }
 125:main.c        **** 
 126:main.c        **** void task3( void *arg )
 127:main.c        **** {
 198              		.loc 1 127 0
 199              		.cfi_startproc
 200              		@ args = 0, pretend = 0, frame = 0
 201              		@ frame_needed = 0, uses_anonymous_args = 0
 202              	.LVL20:
 203 0000 10B5     		push	{r4, lr}
 204              		.cfi_def_cfa_offset 8
 205              		.cfi_offset 4, -8
 206              		.cfi_offset 14, -4
 207              	.LVL21:
 208              	.L21:
 128:main.c        ****     (void)arg;
 129:main.c        ****     
 130:main.c        ****     for(;;)
ARM GAS  C:\Users\nicol\AppData\Local\Temp\ccbU7BrW.s 			page 7


 131:main.c        ****     {
 132:main.c        ****         GPIOJ13_Write(1u);
 209              		.loc 1 132 0
 210 0002 0120     		movs	r0, #1
 211 0004 FFF7FEFF 		bl	GPIOJ13_Write
 212              	.LVL22:
 213              	.LBB4:
 133:main.c        ****         
 134:main.c        ****         for (int i=0; i<5000;i++){
 214              		.loc 1 134 0
 215 0008 0024     		movs	r4, #0
 216 000a 07E0     		b	.L19
 217              	.LVL23:
 218              	.L20:
 135:main.c        ****             GPIOJ13_Write(!GPIOJ13_Read());
 219              		.loc 1 135 0 discriminator 3
 220 000c FFF7FEFF 		bl	GPIOJ13_Read
 221              	.LVL24:
 222 0010 B0FA80F0 		clz	r0, r0
 223 0014 4009     		lsrs	r0, r0, #5
 224 0016 FFF7FEFF 		bl	GPIOJ13_Write
 225              	.LVL25:
 134:main.c        ****             GPIOJ13_Write(!GPIOJ13_Read());
 226              		.loc 1 134 0 discriminator 3
 227 001a 0134     		adds	r4, r4, #1
 228              	.LVL26:
 229              	.L19:
 134:main.c        ****             GPIOJ13_Write(!GPIOJ13_Read());
 230              		.loc 1 134 0 is_stmt 0 discriminator 1
 231 001c 41F28733 		movw	r3, #4999
 232 0020 9C42     		cmp	r4, r3
 233 0022 F3DD     		ble	.L20
 234              	.LBE4:
 136:main.c        ****         }
 137:main.c        **** 
 138:main.c        ****         GPIOJ13_Write(0);
 235              		.loc 1 138 0 is_stmt 1
 236 0024 0020     		movs	r0, #0
 237 0026 FFF7FEFF 		bl	GPIOJ13_Write
 238              	.LVL27:
 139:main.c        **** 
 140:main.c        ****         vTaskDelay(REFINE(TASK3_PERIOD));
 239              		.loc 1 140 0
 240 002a FFF7FEFF 		bl	xTaskGetTickCount
 241              	.LVL28:
 242 002e 054B     		ldr	r3, .L23
 243 0030 A3FB0023 		umull	r2, r3, r3, r0
 244 0034 5B09     		lsrs	r3, r3, #5
 245 0036 6422     		movs	r2, #100
 246 0038 02FB1303 		mls	r3, r2, r3, r0
 247 003c D01A     		subs	r0, r2, r3
 248 003e FFF7FEFF 		bl	vTaskDelay
 249              	.LVL29:
 141:main.c        ****     }
 250              		.loc 1 141 0
 251 0042 DEE7     		b	.L21
 252              	.L24:
ARM GAS  C:\Users\nicol\AppData\Local\Temp\ccbU7BrW.s 			page 8


 253              		.align	2
 254              	.L23:
 255 0044 1F85EB51 		.word	1374389535
 256              		.cfi_endproc
 257              	.LFE72:
 258              		.size	task3, .-task3
 259              		.section	.text.main,"ax",%progbits
 260              		.align	2
 261              		.global	main
 262              		.thumb
 263              		.thumb_func
 264              		.type	main, %function
 265              	main:
 266              	.LFB68:
  54:main.c        ****     /* Enable global interrupts. */
 267              		.loc 1 54 0
 268              		.cfi_startproc
 269              		@ Volatile: function does not return.
 270              		@ args = 0, pretend = 0, frame = 0
 271              		@ frame_needed = 0, uses_anonymous_args = 0
 272 0000 00B5     		push	{lr}
 273              		.cfi_def_cfa_offset 4
 274              		.cfi_offset 14, -4
 275 0002 83B0     		sub	sp, sp, #12
 276              		.cfi_def_cfa_offset 16
  58:main.c        ****     
 277              		.loc 1 58 0
 278 0004 FFF7FEFF 		bl	freeRTOSInit
 279              	.LVL30:
  64:main.c        ****     xTaskCreate( task2, TASK2_NAME, TASK_STACK_SIZE, NULL, TASK2_PRIORITY, &task2Handler );
 280              		.loc 1 64 0
 281 0008 114B     		ldr	r3, .L28
 282 000a 0193     		str	r3, [sp, #4]
 283 000c 0323     		movs	r3, #3
 284 000e 0093     		str	r3, [sp]
 285 0010 0023     		movs	r3, #0
 286 0012 4FF48062 		mov	r2, #1024
 287 0016 0F49     		ldr	r1, .L28+4
 288 0018 0F48     		ldr	r0, .L28+8
 289 001a FFF7FEFF 		bl	xTaskCreate
 290              	.LVL31:
  65:main.c        ****     xTaskCreate( task3, TASK3_NAME, TASK_STACK_SIZE, NULL, TASK3_PRIORITY, &task3Handler );
 291              		.loc 1 65 0
 292 001e 0F4B     		ldr	r3, .L28+12
 293 0020 0193     		str	r3, [sp, #4]
 294 0022 0423     		movs	r3, #4
 295 0024 0093     		str	r3, [sp]
 296 0026 0023     		movs	r3, #0
 297 0028 4FF48062 		mov	r2, #1024
 298 002c 0C49     		ldr	r1, .L28+16
 299 002e 0D48     		ldr	r0, .L28+20
 300 0030 FFF7FEFF 		bl	xTaskCreate
 301              	.LVL32:
  66:main.c        ****     
 302              		.loc 1 66 0
 303 0034 0C4B     		ldr	r3, .L28+24
 304 0036 0193     		str	r3, [sp, #4]
ARM GAS  C:\Users\nicol\AppData\Local\Temp\ccbU7BrW.s 			page 9


 305 0038 0523     		movs	r3, #5
 306 003a 0093     		str	r3, [sp]
 307 003c 0023     		movs	r3, #0
 308 003e 4FF48062 		mov	r2, #1024
 309 0042 0A49     		ldr	r1, .L28+28
 310 0044 0A48     		ldr	r0, .L28+32
 311 0046 FFF7FEFF 		bl	xTaskCreate
 312              	.LVL33:
  69:main.c        ****     
 313              		.loc 1 69 0
 314 004a FFF7FEFF 		bl	vTaskStartScheduler
 315              	.LVL34:
 316              	.L26:
 317 004e FEE7     		b	.L26
 318              	.L29:
 319              		.align	2
 320              	.L28:
 321 0050 00000000 		.word	task1Handler
 322 0054 00000000 		.word	.LC0
 323 0058 00000000 		.word	task1
 324 005c 00000000 		.word	task2Handler
 325 0060 08000000 		.word	.LC1
 326 0064 00000000 		.word	task2
 327 0068 00000000 		.word	task3Handler
 328 006c 10000000 		.word	.LC2
 329 0070 00000000 		.word	task3
 330              		.cfi_endproc
 331              	.LFE68:
 332              		.size	main, .-main
 333              		.comm	task3Handler,4,4
 334              		.comm	task2Handler,4,4
 335              		.comm	task1Handler,4,4
 336              		.section	.rodata.str1.4,"aMS",%progbits,1
 337              		.align	2
 338              	.LC0:
 339 0000 5461736B 		.ascii	"Task 1\000"
 339      203100
 340 0007 00       		.space	1
 341              	.LC1:
 342 0008 5461736B 		.ascii	"Task 2\000"
 342      203200
 343 000f 00       		.space	1
 344              	.LC2:
 345 0010 5461736B 		.ascii	"Task 3\000"
 345      203300
 346              		.text
 347              	.Letext0:
 348              		.file 2 "d:\\cypress\\psoc creator\\4.4\\psoc creator\\import\\gnu\\arm\\5.4.1\\arm-none-eabi\\inc
 349              		.file 3 "d:\\cypress\\psoc creator\\4.4\\psoc creator\\import\\gnu\\arm\\5.4.1\\arm-none-eabi\\inc
 350              		.file 4 "Generated_Source\\PSoC5/cytypes.h"
 351              		.file 5 ".\\FreeRTOS\\include/task.h"
 352              		.file 6 "Generated_Source\\PSoC5/core_cm3.h"
 353              		.file 7 "Generated_Source\\PSoC5/GPIOJ11.h"
 354              		.file 8 "Generated_Source\\PSoC5/GPIOJ12.h"
 355              		.file 9 "Generated_Source\\PSoC5/GPIOJ13.h"