ARM GAS  C:\Users\nicol\AppData\Local\Temp\ccYDRgtd.s 			page 1


   1              		.syntax unified
   2              		.cpu cortex-m3
   3              		.fpu softvfp
   4              		.eabi_attribute 20, 1
   5              		.eabi_attribute 21, 1
   6              		.eabi_attribute 23, 3
   7              		.eabi_attribute 24, 1
   8              		.eabi_attribute 25, 1
   9              		.eabi_attribute 26, 1
  10              		.eabi_attribute 30, 1
  11              		.eabi_attribute 34, 1
  12              		.eabi_attribute 18, 4
  13              		.thumb
  14              		.syntax unified
  15              		.file	"timers.c"
  16              		.text
  17              	.Ltext0:
  18              		.cfi_sections	.debug_frame
  19              		.section	.text.prvGetNextExpireTime,"ax",%progbits
  20              		.align	2
  21              		.thumb
  22              		.thumb_func
  23              		.type	prvGetNextExpireTime, %function
  24              	prvGetNextExpireTime:
  25              	.LFB16:
  26              		.file 1 "FreeRTOS\\src\\timers.c"
   1:FreeRTOS\src/timers.c **** /*
   2:FreeRTOS\src/timers.c ****  * FreeRTOS Kernel V10.1.1
   3:FreeRTOS\src/timers.c ****  * Copyright (C) 2018 Amazon.com, Inc. or its affiliates.  All Rights Reserved.
   4:FreeRTOS\src/timers.c ****  *
   5:FreeRTOS\src/timers.c ****  * Permission is hereby granted, free of charge, to any person obtaining a copy of
   6:FreeRTOS\src/timers.c ****  * this software and associated documentation files (the "Software"), to deal in
   7:FreeRTOS\src/timers.c ****  * the Software without restriction, including without limitation the rights to
   8:FreeRTOS\src/timers.c ****  * use, copy, modify, merge, publish, distribute, sublicense, and/or sell copies of
   9:FreeRTOS\src/timers.c ****  * the Software, and to permit persons to whom the Software is furnished to do so,
  10:FreeRTOS\src/timers.c ****  * subject to the following conditions:
  11:FreeRTOS\src/timers.c ****  *
  12:FreeRTOS\src/timers.c ****  * The above copyright notice and this permission notice shall be included in all
  13:FreeRTOS\src/timers.c ****  * copies or substantial portions of the Software.
  14:FreeRTOS\src/timers.c ****  *
  15:FreeRTOS\src/timers.c ****  * THE SOFTWARE IS PROVIDED "AS IS", WITHOUT WARRANTY OF ANY KIND, EXPRESS OR
  16:FreeRTOS\src/timers.c ****  * IMPLIED, INCLUDING BUT NOT LIMITED TO THE WARRANTIES OF MERCHANTABILITY, FITNESS
  17:FreeRTOS\src/timers.c ****  * FOR A PARTICULAR PURPOSE AND NONINFRINGEMENT. IN NO EVENT SHALL THE AUTHORS OR
  18:FreeRTOS\src/timers.c ****  * COPYRIGHT HOLDERS BE LIABLE FOR ANY CLAIM, DAMAGES OR OTHER LIABILITY, WHETHER
  19:FreeRTOS\src/timers.c ****  * IN AN ACTION OF CONTRACT, TORT OR OTHERWISE, ARISING FROM, OUT OF OR IN
  20:FreeRTOS\src/timers.c ****  * CONNECTION WITH THE SOFTWARE OR THE USE OR OTHER DEALINGS IN THE SOFTWARE.
  21:FreeRTOS\src/timers.c ****  *
  22:FreeRTOS\src/timers.c ****  * http://www.FreeRTOS.org
  23:FreeRTOS\src/timers.c ****  * http://aws.amazon.com/freertos
  24:FreeRTOS\src/timers.c ****  *
  25:FreeRTOS\src/timers.c ****  * 1 tab == 4 spaces!
  26:FreeRTOS\src/timers.c ****  */
  27:FreeRTOS\src/timers.c **** 
  28:FreeRTOS\src/timers.c **** /* Standard includes. */
  29:FreeRTOS\src/timers.c **** #include <stdlib.h>
  30:FreeRTOS\src/timers.c **** 
  31:FreeRTOS\src/timers.c **** /* Defining MPU_WRAPPERS_INCLUDED_FROM_API_FILE prevents task.h from redefining
ARM GAS  C:\Users\nicol\AppData\Local\Temp\ccYDRgtd.s 			page 2


  32:FreeRTOS\src/timers.c **** all the API functions to use the MPU wrappers.  That should only be done when
  33:FreeRTOS\src/timers.c **** task.h is included from an application file. */
  34:FreeRTOS\src/timers.c **** #define MPU_WRAPPERS_INCLUDED_FROM_API_FILE
  35:FreeRTOS\src/timers.c **** 
  36:FreeRTOS\src/timers.c **** #include "FreeRTOS.h"
  37:FreeRTOS\src/timers.c **** #include "task.h"
  38:FreeRTOS\src/timers.c **** #include "queue.h"
  39:FreeRTOS\src/timers.c **** #include "timers.h"
  40:FreeRTOS\src/timers.c **** 
  41:FreeRTOS\src/timers.c **** #if ( INCLUDE_xTimerPendFunctionCall == 1 ) && ( configUSE_TIMERS == 0 )
  42:FreeRTOS\src/timers.c **** 	#error configUSE_TIMERS must be set to 1 to make the xTimerPendFunctionCall() function available.
  43:FreeRTOS\src/timers.c **** #endif
  44:FreeRTOS\src/timers.c **** 
  45:FreeRTOS\src/timers.c **** /* Lint e9021, e961 and e750 are suppressed as a MISRA exception justified
  46:FreeRTOS\src/timers.c **** because the MPU ports require MPU_WRAPPERS_INCLUDED_FROM_API_FILE to be defined
  47:FreeRTOS\src/timers.c **** for the header files above, but not in this file, in order to generate the
  48:FreeRTOS\src/timers.c **** correct privileged Vs unprivileged linkage and placement. */
  49:FreeRTOS\src/timers.c **** #undef MPU_WRAPPERS_INCLUDED_FROM_API_FILE /*lint !e9021 !e961 !e750. */
  50:FreeRTOS\src/timers.c **** 
  51:FreeRTOS\src/timers.c **** 
  52:FreeRTOS\src/timers.c **** /* This entire source file will be skipped if the application is not configured
  53:FreeRTOS\src/timers.c **** to include software timer functionality.  This #if is closed at the very bottom
  54:FreeRTOS\src/timers.c **** of this file.  If you want to include software timer functionality then ensure
  55:FreeRTOS\src/timers.c **** configUSE_TIMERS is set to 1 in FreeRTOSConfig.h. */
  56:FreeRTOS\src/timers.c **** #if ( configUSE_TIMERS == 1 )
  57:FreeRTOS\src/timers.c **** 
  58:FreeRTOS\src/timers.c **** /* Misc definitions. */
  59:FreeRTOS\src/timers.c **** #define tmrNO_DELAY		( TickType_t ) 0U
  60:FreeRTOS\src/timers.c **** 
  61:FreeRTOS\src/timers.c **** /* The name assigned to the timer service task.  This can be overridden by
  62:FreeRTOS\src/timers.c **** defining trmTIMER_SERVICE_TASK_NAME in FreeRTOSConfig.h. */
  63:FreeRTOS\src/timers.c **** #ifndef configTIMER_SERVICE_TASK_NAME
  64:FreeRTOS\src/timers.c **** 	#define configTIMER_SERVICE_TASK_NAME "Tmr Svc"
  65:FreeRTOS\src/timers.c **** #endif
  66:FreeRTOS\src/timers.c **** 
  67:FreeRTOS\src/timers.c **** /* The definition of the timers themselves. */
  68:FreeRTOS\src/timers.c **** typedef struct tmrTimerControl /* The old naming convention is used to prevent breaking kernel awar
  69:FreeRTOS\src/timers.c **** {
  70:FreeRTOS\src/timers.c **** 	const char				*pcTimerName;		/*<< Text name.  This is not used by the kernel, it is included simpl
  71:FreeRTOS\src/timers.c **** 	ListItem_t				xTimerListItem;		/*<< Standard linked list item as used by all kernel features for e
  72:FreeRTOS\src/timers.c **** 	TickType_t				xTimerPeriodInTicks;/*<< How quickly and often the timer expires. */
  73:FreeRTOS\src/timers.c **** 	UBaseType_t				uxAutoReload;		/*<< Set to pdTRUE if the timer should be automatically restarted on
  74:FreeRTOS\src/timers.c **** 	void 					*pvTimerID;			/*<< An ID to identify the timer.  This allows the timer to be identified 
  75:FreeRTOS\src/timers.c **** 	TimerCallbackFunction_t	pxCallbackFunction;	/*<< The function that will be called when the timer e
  76:FreeRTOS\src/timers.c **** 	#if( configUSE_TRACE_FACILITY == 1 )
  77:FreeRTOS\src/timers.c **** 		UBaseType_t			uxTimerNumber;		/*<< An ID assigned by trace tools such as FreeRTOS+Trace */
  78:FreeRTOS\src/timers.c **** 	#endif
  79:FreeRTOS\src/timers.c **** 
  80:FreeRTOS\src/timers.c **** 	#if( ( configSUPPORT_STATIC_ALLOCATION == 1 ) && ( configSUPPORT_DYNAMIC_ALLOCATION == 1 ) )
  81:FreeRTOS\src/timers.c **** 		uint8_t 			ucStaticallyAllocated; /*<< Set to pdTRUE if the timer was created statically so no at
  82:FreeRTOS\src/timers.c **** 	#endif
  83:FreeRTOS\src/timers.c **** } xTIMER;
  84:FreeRTOS\src/timers.c **** 
  85:FreeRTOS\src/timers.c **** /* The old xTIMER name is maintained above then typedefed to the new Timer_t
  86:FreeRTOS\src/timers.c **** name below to enable the use of older kernel aware debuggers. */
  87:FreeRTOS\src/timers.c **** typedef xTIMER Timer_t;
  88:FreeRTOS\src/timers.c **** 
ARM GAS  C:\Users\nicol\AppData\Local\Temp\ccYDRgtd.s 			page 3


  89:FreeRTOS\src/timers.c **** /* The definition of messages that can be sent and received on the timer queue.
  90:FreeRTOS\src/timers.c **** Two types of message can be queued - messages that manipulate a software timer,
  91:FreeRTOS\src/timers.c **** and messages that request the execution of a non-timer related callback.  The
  92:FreeRTOS\src/timers.c **** two message types are defined in two separate structures, xTimerParametersType
  93:FreeRTOS\src/timers.c **** and xCallbackParametersType respectively. */
  94:FreeRTOS\src/timers.c **** typedef struct tmrTimerParameters
  95:FreeRTOS\src/timers.c **** {
  96:FreeRTOS\src/timers.c **** 	TickType_t			xMessageValue;		/*<< An optional value used by a subset of commands, for example, whe
  97:FreeRTOS\src/timers.c **** 	Timer_t *			pxTimer;			/*<< The timer to which the command will be applied. */
  98:FreeRTOS\src/timers.c **** } TimerParameter_t;
  99:FreeRTOS\src/timers.c **** 
 100:FreeRTOS\src/timers.c **** 
 101:FreeRTOS\src/timers.c **** typedef struct tmrCallbackParameters
 102:FreeRTOS\src/timers.c **** {
 103:FreeRTOS\src/timers.c **** 	PendedFunction_t	pxCallbackFunction;	/* << The callback function to execute. */
 104:FreeRTOS\src/timers.c **** 	void *pvParameter1;						/* << The value that will be used as the callback functions first paramet
 105:FreeRTOS\src/timers.c **** 	uint32_t ulParameter2;					/* << The value that will be used as the callback functions second para
 106:FreeRTOS\src/timers.c **** } CallbackParameters_t;
 107:FreeRTOS\src/timers.c **** 
 108:FreeRTOS\src/timers.c **** /* The structure that contains the two message types, along with an identifier
 109:FreeRTOS\src/timers.c **** that is used to determine which message type is valid. */
 110:FreeRTOS\src/timers.c **** typedef struct tmrTimerQueueMessage
 111:FreeRTOS\src/timers.c **** {
 112:FreeRTOS\src/timers.c **** 	BaseType_t			xMessageID;			/*<< The command being sent to the timer service task. */
 113:FreeRTOS\src/timers.c **** 	union
 114:FreeRTOS\src/timers.c **** 	{
 115:FreeRTOS\src/timers.c **** 		TimerParameter_t xTimerParameters;
 116:FreeRTOS\src/timers.c **** 
 117:FreeRTOS\src/timers.c **** 		/* Don't include xCallbackParameters if it is not going to be used as
 118:FreeRTOS\src/timers.c **** 		it makes the structure (and therefore the timer queue) larger. */
 119:FreeRTOS\src/timers.c **** 		#if ( INCLUDE_xTimerPendFunctionCall == 1 )
 120:FreeRTOS\src/timers.c **** 			CallbackParameters_t xCallbackParameters;
 121:FreeRTOS\src/timers.c **** 		#endif /* INCLUDE_xTimerPendFunctionCall */
 122:FreeRTOS\src/timers.c **** 	} u;
 123:FreeRTOS\src/timers.c **** } DaemonTaskMessage_t;
 124:FreeRTOS\src/timers.c **** 
 125:FreeRTOS\src/timers.c **** /*lint -save -e956 A manual analysis and inspection has been used to determine
 126:FreeRTOS\src/timers.c **** which static variables must be declared volatile. */
 127:FreeRTOS\src/timers.c **** 
 128:FreeRTOS\src/timers.c **** /* The list in which active timers are stored.  Timers are referenced in expire
 129:FreeRTOS\src/timers.c **** time order, with the nearest expiry time at the front of the list.  Only the
 130:FreeRTOS\src/timers.c **** timer service task is allowed to access these lists. 
 131:FreeRTOS\src/timers.c **** xActiveTimerList1 and xActiveTimerList2 could be at function scope but that
 132:FreeRTOS\src/timers.c **** breaks some kernel aware debuggers, and debuggers that reply on removing the
 133:FreeRTOS\src/timers.c **** static qualifier. */
 134:FreeRTOS\src/timers.c **** PRIVILEGED_DATA static List_t xActiveTimerList1;
 135:FreeRTOS\src/timers.c **** PRIVILEGED_DATA static List_t xActiveTimerList2;
 136:FreeRTOS\src/timers.c **** PRIVILEGED_DATA static List_t *pxCurrentTimerList;
 137:FreeRTOS\src/timers.c **** PRIVILEGED_DATA static List_t *pxOverflowTimerList;
 138:FreeRTOS\src/timers.c **** 
 139:FreeRTOS\src/timers.c **** /* A queue that is used to send commands to the timer service task. */
 140:FreeRTOS\src/timers.c **** PRIVILEGED_DATA static QueueHandle_t xTimerQueue = NULL;
 141:FreeRTOS\src/timers.c **** PRIVILEGED_DATA static TaskHandle_t xTimerTaskHandle = NULL;
 142:FreeRTOS\src/timers.c **** 
 143:FreeRTOS\src/timers.c **** /*lint -restore */
 144:FreeRTOS\src/timers.c **** 
 145:FreeRTOS\src/timers.c **** /*-----------------------------------------------------------*/
ARM GAS  C:\Users\nicol\AppData\Local\Temp\ccYDRgtd.s 			page 4


 146:FreeRTOS\src/timers.c **** 
 147:FreeRTOS\src/timers.c **** #if( configSUPPORT_STATIC_ALLOCATION == 1 )
 148:FreeRTOS\src/timers.c **** 
 149:FreeRTOS\src/timers.c **** 	/* If static allocation is supported then the application must provide the
 150:FreeRTOS\src/timers.c **** 	following callback function - which enables the application to optionally
 151:FreeRTOS\src/timers.c **** 	provide the memory that will be used by the timer task as the task's stack
 152:FreeRTOS\src/timers.c **** 	and TCB. */
 153:FreeRTOS\src/timers.c **** 	extern void vApplicationGetTimerTaskMemory( StaticTask_t **ppxTimerTaskTCBBuffer, StackType_t **pp
 154:FreeRTOS\src/timers.c **** 
 155:FreeRTOS\src/timers.c **** #endif
 156:FreeRTOS\src/timers.c **** 
 157:FreeRTOS\src/timers.c **** /*
 158:FreeRTOS\src/timers.c ****  * Initialise the infrastructure used by the timer service task if it has not
 159:FreeRTOS\src/timers.c ****  * been initialised already.
 160:FreeRTOS\src/timers.c ****  */
 161:FreeRTOS\src/timers.c **** static void prvCheckForValidListAndQueue( void ) PRIVILEGED_FUNCTION;
 162:FreeRTOS\src/timers.c **** 
 163:FreeRTOS\src/timers.c **** /*
 164:FreeRTOS\src/timers.c ****  * The timer service task (daemon).  Timer functionality is controlled by this
 165:FreeRTOS\src/timers.c ****  * task.  Other tasks communicate with the timer service task using the
 166:FreeRTOS\src/timers.c ****  * xTimerQueue queue.
 167:FreeRTOS\src/timers.c ****  */
 168:FreeRTOS\src/timers.c **** static void prvTimerTask( void *pvParameters ) PRIVILEGED_FUNCTION;
 169:FreeRTOS\src/timers.c **** 
 170:FreeRTOS\src/timers.c **** /*
 171:FreeRTOS\src/timers.c ****  * Called by the timer service task to interpret and process a command it
 172:FreeRTOS\src/timers.c ****  * received on the timer queue.
 173:FreeRTOS\src/timers.c ****  */
 174:FreeRTOS\src/timers.c **** static void prvProcessReceivedCommands( void ) PRIVILEGED_FUNCTION;
 175:FreeRTOS\src/timers.c **** 
 176:FreeRTOS\src/timers.c **** /*
 177:FreeRTOS\src/timers.c ****  * Insert the timer into either xActiveTimerList1, or xActiveTimerList2,
 178:FreeRTOS\src/timers.c ****  * depending on if the expire time causes a timer counter overflow.
 179:FreeRTOS\src/timers.c ****  */
 180:FreeRTOS\src/timers.c **** static BaseType_t prvInsertTimerInActiveList( Timer_t * const pxTimer, const TickType_t xNextExpiry
 181:FreeRTOS\src/timers.c **** 
 182:FreeRTOS\src/timers.c **** /*
 183:FreeRTOS\src/timers.c ****  * An active timer has reached its expire time.  Reload the timer if it is an
 184:FreeRTOS\src/timers.c ****  * auto reload timer, then call its callback.
 185:FreeRTOS\src/timers.c ****  */
 186:FreeRTOS\src/timers.c **** static void prvProcessExpiredTimer( const TickType_t xNextExpireTime, const TickType_t xTimeNow ) P
 187:FreeRTOS\src/timers.c **** 
 188:FreeRTOS\src/timers.c **** /*
 189:FreeRTOS\src/timers.c ****  * The tick count has overflowed.  Switch the timer lists after ensuring the
 190:FreeRTOS\src/timers.c ****  * current timer list does not still reference some timers.
 191:FreeRTOS\src/timers.c ****  */
 192:FreeRTOS\src/timers.c **** static void prvSwitchTimerLists( void ) PRIVILEGED_FUNCTION;
 193:FreeRTOS\src/timers.c **** 
 194:FreeRTOS\src/timers.c **** /*
 195:FreeRTOS\src/timers.c ****  * Obtain the current tick count, setting *pxTimerListsWereSwitched to pdTRUE
 196:FreeRTOS\src/timers.c ****  * if a tick count overflow occurred since prvSampleTimeNow() was last called.
 197:FreeRTOS\src/timers.c ****  */
 198:FreeRTOS\src/timers.c **** static TickType_t prvSampleTimeNow( BaseType_t * const pxTimerListsWereSwitched ) PRIVILEGED_FUNCTI
 199:FreeRTOS\src/timers.c **** 
 200:FreeRTOS\src/timers.c **** /*
 201:FreeRTOS\src/timers.c ****  * If the timer list contains any active timers then return the expire time of
 202:FreeRTOS\src/timers.c ****  * the timer that will expire first and set *pxListWasEmpty to false.  If the
ARM GAS  C:\Users\nicol\AppData\Local\Temp\ccYDRgtd.s 			page 5


 203:FreeRTOS\src/timers.c ****  * timer list does not contain any timers then return 0 and set *pxListWasEmpty
 204:FreeRTOS\src/timers.c ****  * to pdTRUE.
 205:FreeRTOS\src/timers.c ****  */
 206:FreeRTOS\src/timers.c **** static TickType_t prvGetNextExpireTime( BaseType_t * const pxListWasEmpty ) PRIVILEGED_FUNCTION;
 207:FreeRTOS\src/timers.c **** 
 208:FreeRTOS\src/timers.c **** /*
 209:FreeRTOS\src/timers.c ****  * If a timer has expired, process it.  Otherwise, block the timer service task
 210:FreeRTOS\src/timers.c ****  * until either a timer does expire or a command is received.
 211:FreeRTOS\src/timers.c ****  */
 212:FreeRTOS\src/timers.c **** static void prvProcessTimerOrBlockTask( const TickType_t xNextExpireTime, BaseType_t xListWasEmpty 
 213:FreeRTOS\src/timers.c **** 
 214:FreeRTOS\src/timers.c **** /*
 215:FreeRTOS\src/timers.c ****  * Called after a Timer_t structure has been allocated either statically or
 216:FreeRTOS\src/timers.c ****  * dynamically to fill in the structure's members.
 217:FreeRTOS\src/timers.c ****  */
 218:FreeRTOS\src/timers.c **** static void prvInitialiseNewTimer(	const char * const pcTimerName,			/*lint !e971 Unqualified char 
 219:FreeRTOS\src/timers.c **** 									const TickType_t xTimerPeriodInTicks,
 220:FreeRTOS\src/timers.c **** 									const UBaseType_t uxAutoReload,
 221:FreeRTOS\src/timers.c **** 									void * const pvTimerID,
 222:FreeRTOS\src/timers.c **** 									TimerCallbackFunction_t pxCallbackFunction,
 223:FreeRTOS\src/timers.c **** 									Timer_t *pxNewTimer ) PRIVILEGED_FUNCTION;
 224:FreeRTOS\src/timers.c **** /*-----------------------------------------------------------*/
 225:FreeRTOS\src/timers.c **** 
 226:FreeRTOS\src/timers.c **** BaseType_t xTimerCreateTimerTask( void )
 227:FreeRTOS\src/timers.c **** {
 228:FreeRTOS\src/timers.c **** BaseType_t xReturn = pdFAIL;
 229:FreeRTOS\src/timers.c **** 
 230:FreeRTOS\src/timers.c **** 	/* This function is called when the scheduler is started if
 231:FreeRTOS\src/timers.c **** 	configUSE_TIMERS is set to 1.  Check that the infrastructure used by the
 232:FreeRTOS\src/timers.c **** 	timer service task has been created/initialised.  If timers have already
 233:FreeRTOS\src/timers.c **** 	been created then the initialisation will already have been performed. */
 234:FreeRTOS\src/timers.c **** 	prvCheckForValidListAndQueue();
 235:FreeRTOS\src/timers.c **** 
 236:FreeRTOS\src/timers.c **** 	if( xTimerQueue != NULL )
 237:FreeRTOS\src/timers.c **** 	{
 238:FreeRTOS\src/timers.c **** 		#if( configSUPPORT_STATIC_ALLOCATION == 1 )
 239:FreeRTOS\src/timers.c **** 		{
 240:FreeRTOS\src/timers.c **** 			StaticTask_t *pxTimerTaskTCBBuffer = NULL;
 241:FreeRTOS\src/timers.c **** 			StackType_t *pxTimerTaskStackBuffer = NULL;
 242:FreeRTOS\src/timers.c **** 			uint32_t ulTimerTaskStackSize;
 243:FreeRTOS\src/timers.c **** 
 244:FreeRTOS\src/timers.c **** 			vApplicationGetTimerTaskMemory( &pxTimerTaskTCBBuffer, &pxTimerTaskStackBuffer, &ulTimerTaskStac
 245:FreeRTOS\src/timers.c **** 			xTimerTaskHandle = xTaskCreateStatic(	prvTimerTask,
 246:FreeRTOS\src/timers.c **** 													configTIMER_SERVICE_TASK_NAME,
 247:FreeRTOS\src/timers.c **** 													ulTimerTaskStackSize,
 248:FreeRTOS\src/timers.c **** 													NULL,
 249:FreeRTOS\src/timers.c **** 													( ( UBaseType_t ) configTIMER_TASK_PRIORITY ) | portPRIVILEGE_BIT,
 250:FreeRTOS\src/timers.c **** 													pxTimerTaskStackBuffer,
 251:FreeRTOS\src/timers.c **** 													pxTimerTaskTCBBuffer );
 252:FreeRTOS\src/timers.c **** 
 253:FreeRTOS\src/timers.c **** 			if( xTimerTaskHandle != NULL )
 254:FreeRTOS\src/timers.c **** 			{
 255:FreeRTOS\src/timers.c **** 				xReturn = pdPASS;
 256:FreeRTOS\src/timers.c **** 			}
 257:FreeRTOS\src/timers.c **** 		}
 258:FreeRTOS\src/timers.c **** 		#else
 259:FreeRTOS\src/timers.c **** 		{
ARM GAS  C:\Users\nicol\AppData\Local\Temp\ccYDRgtd.s 			page 6


 260:FreeRTOS\src/timers.c **** 			xReturn = xTaskCreate(	prvTimerTask,
 261:FreeRTOS\src/timers.c **** 									configTIMER_SERVICE_TASK_NAME,
 262:FreeRTOS\src/timers.c **** 									configTIMER_TASK_STACK_DEPTH,
 263:FreeRTOS\src/timers.c **** 									NULL,
 264:FreeRTOS\src/timers.c **** 									( ( UBaseType_t ) configTIMER_TASK_PRIORITY ) | portPRIVILEGE_BIT,
 265:FreeRTOS\src/timers.c **** 									&xTimerTaskHandle );
 266:FreeRTOS\src/timers.c **** 		}
 267:FreeRTOS\src/timers.c **** 		#endif /* configSUPPORT_STATIC_ALLOCATION */
 268:FreeRTOS\src/timers.c **** 	}
 269:FreeRTOS\src/timers.c **** 	else
 270:FreeRTOS\src/timers.c **** 	{
 271:FreeRTOS\src/timers.c **** 		mtCOVERAGE_TEST_MARKER();
 272:FreeRTOS\src/timers.c **** 	}
 273:FreeRTOS\src/timers.c **** 
 274:FreeRTOS\src/timers.c **** 	configASSERT( xReturn );
 275:FreeRTOS\src/timers.c **** 	return xReturn;
 276:FreeRTOS\src/timers.c **** }
 277:FreeRTOS\src/timers.c **** /*-----------------------------------------------------------*/
 278:FreeRTOS\src/timers.c **** 
 279:FreeRTOS\src/timers.c **** #if( configSUPPORT_DYNAMIC_ALLOCATION == 1 )
 280:FreeRTOS\src/timers.c **** 
 281:FreeRTOS\src/timers.c **** 	TimerHandle_t xTimerCreate(	const char * const pcTimerName,			/*lint !e971 Unqualified char types 
 282:FreeRTOS\src/timers.c **** 								const TickType_t xTimerPeriodInTicks,
 283:FreeRTOS\src/timers.c **** 								const UBaseType_t uxAutoReload,
 284:FreeRTOS\src/timers.c **** 								void * const pvTimerID,
 285:FreeRTOS\src/timers.c **** 								TimerCallbackFunction_t pxCallbackFunction )
 286:FreeRTOS\src/timers.c **** 	{
 287:FreeRTOS\src/timers.c **** 	Timer_t *pxNewTimer;
 288:FreeRTOS\src/timers.c **** 
 289:FreeRTOS\src/timers.c **** 		pxNewTimer = ( Timer_t * ) pvPortMalloc( sizeof( Timer_t ) ); /*lint !e9087 !e9079 All values ret
 290:FreeRTOS\src/timers.c **** 
 291:FreeRTOS\src/timers.c **** 		if( pxNewTimer != NULL )
 292:FreeRTOS\src/timers.c **** 		{
 293:FreeRTOS\src/timers.c **** 			prvInitialiseNewTimer( pcTimerName, xTimerPeriodInTicks, uxAutoReload, pvTimerID, pxCallbackFunc
 294:FreeRTOS\src/timers.c **** 
 295:FreeRTOS\src/timers.c **** 			#if( configSUPPORT_STATIC_ALLOCATION == 1 )
 296:FreeRTOS\src/timers.c **** 			{
 297:FreeRTOS\src/timers.c **** 				/* Timers can be created statically or dynamically, so note this
 298:FreeRTOS\src/timers.c **** 				timer was created dynamically in case the timer is later
 299:FreeRTOS\src/timers.c **** 				deleted. */
 300:FreeRTOS\src/timers.c **** 				pxNewTimer->ucStaticallyAllocated = pdFALSE;
 301:FreeRTOS\src/timers.c **** 			}
 302:FreeRTOS\src/timers.c **** 			#endif /* configSUPPORT_STATIC_ALLOCATION */
 303:FreeRTOS\src/timers.c **** 		}
 304:FreeRTOS\src/timers.c **** 
 305:FreeRTOS\src/timers.c **** 		return pxNewTimer;
 306:FreeRTOS\src/timers.c **** 	}
 307:FreeRTOS\src/timers.c **** 
 308:FreeRTOS\src/timers.c **** #endif /* configSUPPORT_STATIC_ALLOCATION */
 309:FreeRTOS\src/timers.c **** /*-----------------------------------------------------------*/
 310:FreeRTOS\src/timers.c **** 
 311:FreeRTOS\src/timers.c **** #if( configSUPPORT_STATIC_ALLOCATION == 1 )
 312:FreeRTOS\src/timers.c **** 
 313:FreeRTOS\src/timers.c **** 	TimerHandle_t xTimerCreateStatic(	const char * const pcTimerName,		/*lint !e971 Unqualified char t
 314:FreeRTOS\src/timers.c **** 										const TickType_t xTimerPeriodInTicks,
 315:FreeRTOS\src/timers.c **** 										const UBaseType_t uxAutoReload,
 316:FreeRTOS\src/timers.c **** 										void * const pvTimerID,
ARM GAS  C:\Users\nicol\AppData\Local\Temp\ccYDRgtd.s 			page 7


 317:FreeRTOS\src/timers.c **** 										TimerCallbackFunction_t pxCallbackFunction,
 318:FreeRTOS\src/timers.c **** 										StaticTimer_t *pxTimerBuffer )
 319:FreeRTOS\src/timers.c **** 	{
 320:FreeRTOS\src/timers.c **** 	Timer_t *pxNewTimer;
 321:FreeRTOS\src/timers.c **** 
 322:FreeRTOS\src/timers.c **** 		#if( configASSERT_DEFINED == 1 )
 323:FreeRTOS\src/timers.c **** 		{
 324:FreeRTOS\src/timers.c **** 			/* Sanity check that the size of the structure used to declare a
 325:FreeRTOS\src/timers.c **** 			variable of type StaticTimer_t equals the size of the real timer
 326:FreeRTOS\src/timers.c **** 			structure. */
 327:FreeRTOS\src/timers.c **** 			volatile size_t xSize = sizeof( StaticTimer_t );
 328:FreeRTOS\src/timers.c **** 			configASSERT( xSize == sizeof( Timer_t ) );
 329:FreeRTOS\src/timers.c **** 			( void ) xSize; /* Keeps lint quiet when configASSERT() is not defined. */
 330:FreeRTOS\src/timers.c **** 		}
 331:FreeRTOS\src/timers.c **** 		#endif /* configASSERT_DEFINED */
 332:FreeRTOS\src/timers.c **** 
 333:FreeRTOS\src/timers.c **** 		/* A pointer to a StaticTimer_t structure MUST be provided, use it. */
 334:FreeRTOS\src/timers.c **** 		configASSERT( pxTimerBuffer );
 335:FreeRTOS\src/timers.c **** 		pxNewTimer = ( Timer_t * ) pxTimerBuffer; /*lint !e740 !e9087 StaticTimer_t is a pointer to a Tim
 336:FreeRTOS\src/timers.c **** 
 337:FreeRTOS\src/timers.c **** 		if( pxNewTimer != NULL )
 338:FreeRTOS\src/timers.c **** 		{
 339:FreeRTOS\src/timers.c **** 			prvInitialiseNewTimer( pcTimerName, xTimerPeriodInTicks, uxAutoReload, pvTimerID, pxCallbackFunc
 340:FreeRTOS\src/timers.c **** 
 341:FreeRTOS\src/timers.c **** 			#if( configSUPPORT_DYNAMIC_ALLOCATION == 1 )
 342:FreeRTOS\src/timers.c **** 			{
 343:FreeRTOS\src/timers.c **** 				/* Timers can be created statically or dynamically so note this
 344:FreeRTOS\src/timers.c **** 				timer was created statically in case it is later deleted. */
 345:FreeRTOS\src/timers.c **** 				pxNewTimer->ucStaticallyAllocated = pdTRUE;
 346:FreeRTOS\src/timers.c **** 			}
 347:FreeRTOS\src/timers.c **** 			#endif /* configSUPPORT_DYNAMIC_ALLOCATION */
 348:FreeRTOS\src/timers.c **** 		}
 349:FreeRTOS\src/timers.c **** 
 350:FreeRTOS\src/timers.c **** 		return pxNewTimer;
 351:FreeRTOS\src/timers.c **** 	}
 352:FreeRTOS\src/timers.c **** 
 353:FreeRTOS\src/timers.c **** #endif /* configSUPPORT_STATIC_ALLOCATION */
 354:FreeRTOS\src/timers.c **** /*-----------------------------------------------------------*/
 355:FreeRTOS\src/timers.c **** 
 356:FreeRTOS\src/timers.c **** static void prvInitialiseNewTimer(	const char * const pcTimerName,			/*lint !e971 Unqualified char 
 357:FreeRTOS\src/timers.c **** 									const TickType_t xTimerPeriodInTicks,
 358:FreeRTOS\src/timers.c **** 									const UBaseType_t uxAutoReload,
 359:FreeRTOS\src/timers.c **** 									void * const pvTimerID,
 360:FreeRTOS\src/timers.c **** 									TimerCallbackFunction_t pxCallbackFunction,
 361:FreeRTOS\src/timers.c **** 									Timer_t *pxNewTimer )
 362:FreeRTOS\src/timers.c **** {
 363:FreeRTOS\src/timers.c **** 	/* 0 is not a valid value for xTimerPeriodInTicks. */
 364:FreeRTOS\src/timers.c **** 	configASSERT( ( xTimerPeriodInTicks > 0 ) );
 365:FreeRTOS\src/timers.c **** 
 366:FreeRTOS\src/timers.c **** 	if( pxNewTimer != NULL )
 367:FreeRTOS\src/timers.c **** 	{
 368:FreeRTOS\src/timers.c **** 		/* Ensure the infrastructure used by the timer service task has been
 369:FreeRTOS\src/timers.c **** 		created/initialised. */
 370:FreeRTOS\src/timers.c **** 		prvCheckForValidListAndQueue();
 371:FreeRTOS\src/timers.c **** 
 372:FreeRTOS\src/timers.c **** 		/* Initialise the timer structure members using the function
 373:FreeRTOS\src/timers.c **** 		parameters. */
ARM GAS  C:\Users\nicol\AppData\Local\Temp\ccYDRgtd.s 			page 8


 374:FreeRTOS\src/timers.c **** 		pxNewTimer->pcTimerName = pcTimerName;
 375:FreeRTOS\src/timers.c **** 		pxNewTimer->xTimerPeriodInTicks = xTimerPeriodInTicks;
 376:FreeRTOS\src/timers.c **** 		pxNewTimer->uxAutoReload = uxAutoReload;
 377:FreeRTOS\src/timers.c **** 		pxNewTimer->pvTimerID = pvTimerID;
 378:FreeRTOS\src/timers.c **** 		pxNewTimer->pxCallbackFunction = pxCallbackFunction;
 379:FreeRTOS\src/timers.c **** 		vListInitialiseItem( &( pxNewTimer->xTimerListItem ) );
 380:FreeRTOS\src/timers.c **** 		traceTIMER_CREATE( pxNewTimer );
 381:FreeRTOS\src/timers.c **** 	}
 382:FreeRTOS\src/timers.c **** }
 383:FreeRTOS\src/timers.c **** /*-----------------------------------------------------------*/
 384:FreeRTOS\src/timers.c **** 
 385:FreeRTOS\src/timers.c **** BaseType_t xTimerGenericCommand( TimerHandle_t xTimer, const BaseType_t xCommandID, const TickType_
 386:FreeRTOS\src/timers.c **** {
 387:FreeRTOS\src/timers.c **** BaseType_t xReturn = pdFAIL;
 388:FreeRTOS\src/timers.c **** DaemonTaskMessage_t xMessage;
 389:FreeRTOS\src/timers.c **** 
 390:FreeRTOS\src/timers.c **** 	configASSERT( xTimer );
 391:FreeRTOS\src/timers.c **** 
 392:FreeRTOS\src/timers.c **** 	/* Send a message to the timer service task to perform a particular action
 393:FreeRTOS\src/timers.c **** 	on a particular timer definition. */
 394:FreeRTOS\src/timers.c **** 	if( xTimerQueue != NULL )
 395:FreeRTOS\src/timers.c **** 	{
 396:FreeRTOS\src/timers.c **** 		/* Send a command to the timer service task to start the xTimer timer. */
 397:FreeRTOS\src/timers.c **** 		xMessage.xMessageID = xCommandID;
 398:FreeRTOS\src/timers.c **** 		xMessage.u.xTimerParameters.xMessageValue = xOptionalValue;
 399:FreeRTOS\src/timers.c **** 		xMessage.u.xTimerParameters.pxTimer = xTimer;
 400:FreeRTOS\src/timers.c **** 
 401:FreeRTOS\src/timers.c **** 		if( xCommandID < tmrFIRST_FROM_ISR_COMMAND )
 402:FreeRTOS\src/timers.c **** 		{
 403:FreeRTOS\src/timers.c **** 			if( xTaskGetSchedulerState() == taskSCHEDULER_RUNNING )
 404:FreeRTOS\src/timers.c **** 			{
 405:FreeRTOS\src/timers.c **** 				xReturn = xQueueSendToBack( xTimerQueue, &xMessage, xTicksToWait );
 406:FreeRTOS\src/timers.c **** 			}
 407:FreeRTOS\src/timers.c **** 			else
 408:FreeRTOS\src/timers.c **** 			{
 409:FreeRTOS\src/timers.c **** 				xReturn = xQueueSendToBack( xTimerQueue, &xMessage, tmrNO_DELAY );
 410:FreeRTOS\src/timers.c **** 			}
 411:FreeRTOS\src/timers.c **** 		}
 412:FreeRTOS\src/timers.c **** 		else
 413:FreeRTOS\src/timers.c **** 		{
 414:FreeRTOS\src/timers.c **** 			xReturn = xQueueSendToBackFromISR( xTimerQueue, &xMessage, pxHigherPriorityTaskWoken );
 415:FreeRTOS\src/timers.c **** 		}
 416:FreeRTOS\src/timers.c **** 
 417:FreeRTOS\src/timers.c **** 		traceTIMER_COMMAND_SEND( xTimer, xCommandID, xOptionalValue, xReturn );
 418:FreeRTOS\src/timers.c **** 	}
 419:FreeRTOS\src/timers.c **** 	else
 420:FreeRTOS\src/timers.c **** 	{
 421:FreeRTOS\src/timers.c **** 		mtCOVERAGE_TEST_MARKER();
 422:FreeRTOS\src/timers.c **** 	}
 423:FreeRTOS\src/timers.c **** 
 424:FreeRTOS\src/timers.c **** 	return xReturn;
 425:FreeRTOS\src/timers.c **** }
 426:FreeRTOS\src/timers.c **** /*-----------------------------------------------------------*/
 427:FreeRTOS\src/timers.c **** 
 428:FreeRTOS\src/timers.c **** TaskHandle_t xTimerGetTimerDaemonTaskHandle( void )
 429:FreeRTOS\src/timers.c **** {
 430:FreeRTOS\src/timers.c **** 	/* If xTimerGetTimerDaemonTaskHandle() is called before the scheduler has been
ARM GAS  C:\Users\nicol\AppData\Local\Temp\ccYDRgtd.s 			page 9


 431:FreeRTOS\src/timers.c **** 	started, then xTimerTaskHandle will be NULL. */
 432:FreeRTOS\src/timers.c **** 	configASSERT( ( xTimerTaskHandle != NULL ) );
 433:FreeRTOS\src/timers.c **** 	return xTimerTaskHandle;
 434:FreeRTOS\src/timers.c **** }
 435:FreeRTOS\src/timers.c **** /*-----------------------------------------------------------*/
 436:FreeRTOS\src/timers.c **** 
 437:FreeRTOS\src/timers.c **** TickType_t xTimerGetPeriod( TimerHandle_t xTimer )
 438:FreeRTOS\src/timers.c **** {
 439:FreeRTOS\src/timers.c **** Timer_t *pxTimer = xTimer;
 440:FreeRTOS\src/timers.c **** 
 441:FreeRTOS\src/timers.c **** 	configASSERT( xTimer );
 442:FreeRTOS\src/timers.c **** 	return pxTimer->xTimerPeriodInTicks;
 443:FreeRTOS\src/timers.c **** }
 444:FreeRTOS\src/timers.c **** /*-----------------------------------------------------------*/
 445:FreeRTOS\src/timers.c **** 
 446:FreeRTOS\src/timers.c **** TickType_t xTimerGetExpiryTime( TimerHandle_t xTimer )
 447:FreeRTOS\src/timers.c **** {
 448:FreeRTOS\src/timers.c **** Timer_t * pxTimer =  xTimer;
 449:FreeRTOS\src/timers.c **** TickType_t xReturn;
 450:FreeRTOS\src/timers.c **** 
 451:FreeRTOS\src/timers.c **** 	configASSERT( xTimer );
 452:FreeRTOS\src/timers.c **** 	xReturn = listGET_LIST_ITEM_VALUE( &( pxTimer->xTimerListItem ) );
 453:FreeRTOS\src/timers.c **** 	return xReturn;
 454:FreeRTOS\src/timers.c **** }
 455:FreeRTOS\src/timers.c **** /*-----------------------------------------------------------*/
 456:FreeRTOS\src/timers.c **** 
 457:FreeRTOS\src/timers.c **** const char * pcTimerGetName( TimerHandle_t xTimer ) /*lint !e971 Unqualified char types are allowed
 458:FreeRTOS\src/timers.c **** {
 459:FreeRTOS\src/timers.c **** Timer_t *pxTimer = xTimer;
 460:FreeRTOS\src/timers.c **** 
 461:FreeRTOS\src/timers.c **** 	configASSERT( xTimer );
 462:FreeRTOS\src/timers.c **** 	return pxTimer->pcTimerName;
 463:FreeRTOS\src/timers.c **** }
 464:FreeRTOS\src/timers.c **** /*-----------------------------------------------------------*/
 465:FreeRTOS\src/timers.c **** 
 466:FreeRTOS\src/timers.c **** static void prvProcessExpiredTimer( const TickType_t xNextExpireTime, const TickType_t xTimeNow )
 467:FreeRTOS\src/timers.c **** {
 468:FreeRTOS\src/timers.c **** BaseType_t xResult;
 469:FreeRTOS\src/timers.c **** Timer_t * const pxTimer = ( Timer_t * ) listGET_OWNER_OF_HEAD_ENTRY( pxCurrentTimerList ); /*lint !
 470:FreeRTOS\src/timers.c **** 
 471:FreeRTOS\src/timers.c **** 	/* Remove the timer from the list of active timers.  A check has already
 472:FreeRTOS\src/timers.c **** 	been performed to ensure the list is not empty. */
 473:FreeRTOS\src/timers.c **** 	( void ) uxListRemove( &( pxTimer->xTimerListItem ) );
 474:FreeRTOS\src/timers.c **** 	traceTIMER_EXPIRED( pxTimer );
 475:FreeRTOS\src/timers.c **** 
 476:FreeRTOS\src/timers.c **** 	/* If the timer is an auto reload timer then calculate the next
 477:FreeRTOS\src/timers.c **** 	expiry time and re-insert the timer in the list of active timers. */
 478:FreeRTOS\src/timers.c **** 	if( pxTimer->uxAutoReload == ( UBaseType_t ) pdTRUE )
 479:FreeRTOS\src/timers.c **** 	{
 480:FreeRTOS\src/timers.c **** 		/* The timer is inserted into a list using a time relative to anything
 481:FreeRTOS\src/timers.c **** 		other than the current time.  It will therefore be inserted into the
 482:FreeRTOS\src/timers.c **** 		correct list relative to the time this task thinks it is now. */
 483:FreeRTOS\src/timers.c **** 		if( prvInsertTimerInActiveList( pxTimer, ( xNextExpireTime + pxTimer->xTimerPeriodInTicks ), xTim
 484:FreeRTOS\src/timers.c **** 		{
 485:FreeRTOS\src/timers.c **** 			/* The timer expired before it was added to the active timer
 486:FreeRTOS\src/timers.c **** 			list.  Reload it now.  */
 487:FreeRTOS\src/timers.c **** 			xResult = xTimerGenericCommand( pxTimer, tmrCOMMAND_START_DONT_TRACE, xNextExpireTime, NULL, tmr
ARM GAS  C:\Users\nicol\AppData\Local\Temp\ccYDRgtd.s 			page 10


 488:FreeRTOS\src/timers.c **** 			configASSERT( xResult );
 489:FreeRTOS\src/timers.c **** 			( void ) xResult;
 490:FreeRTOS\src/timers.c **** 		}
 491:FreeRTOS\src/timers.c **** 		else
 492:FreeRTOS\src/timers.c **** 		{
 493:FreeRTOS\src/timers.c **** 			mtCOVERAGE_TEST_MARKER();
 494:FreeRTOS\src/timers.c **** 		}
 495:FreeRTOS\src/timers.c **** 	}
 496:FreeRTOS\src/timers.c **** 	else
 497:FreeRTOS\src/timers.c **** 	{
 498:FreeRTOS\src/timers.c **** 		mtCOVERAGE_TEST_MARKER();
 499:FreeRTOS\src/timers.c **** 	}
 500:FreeRTOS\src/timers.c **** 
 501:FreeRTOS\src/timers.c **** 	/* Call the timer callback. */
 502:FreeRTOS\src/timers.c **** 	pxTimer->pxCallbackFunction( ( TimerHandle_t ) pxTimer );
 503:FreeRTOS\src/timers.c **** }
 504:FreeRTOS\src/timers.c **** /*-----------------------------------------------------------*/
 505:FreeRTOS\src/timers.c **** 
 506:FreeRTOS\src/timers.c **** static void prvTimerTask( void *pvParameters )
 507:FreeRTOS\src/timers.c **** {
 508:FreeRTOS\src/timers.c **** TickType_t xNextExpireTime;
 509:FreeRTOS\src/timers.c **** BaseType_t xListWasEmpty;
 510:FreeRTOS\src/timers.c **** 
 511:FreeRTOS\src/timers.c **** 	/* Just to avoid compiler warnings. */
 512:FreeRTOS\src/timers.c **** 	( void ) pvParameters;
 513:FreeRTOS\src/timers.c **** 
 514:FreeRTOS\src/timers.c **** 	#if( configUSE_DAEMON_TASK_STARTUP_HOOK == 1 )
 515:FreeRTOS\src/timers.c **** 	{
 516:FreeRTOS\src/timers.c **** 		extern void vApplicationDaemonTaskStartupHook( void );
 517:FreeRTOS\src/timers.c **** 
 518:FreeRTOS\src/timers.c **** 		/* Allow the application writer to execute some code in the context of
 519:FreeRTOS\src/timers.c **** 		this task at the point the task starts executing.  This is useful if the
 520:FreeRTOS\src/timers.c **** 		application includes initialisation code that would benefit from
 521:FreeRTOS\src/timers.c **** 		executing after the scheduler has been started. */
 522:FreeRTOS\src/timers.c **** 		vApplicationDaemonTaskStartupHook();
 523:FreeRTOS\src/timers.c **** 	}
 524:FreeRTOS\src/timers.c **** 	#endif /* configUSE_DAEMON_TASK_STARTUP_HOOK */
 525:FreeRTOS\src/timers.c **** 
 526:FreeRTOS\src/timers.c **** 	for( ;; )
 527:FreeRTOS\src/timers.c **** 	{
 528:FreeRTOS\src/timers.c **** 		/* Query the timers list to see if it contains any timers, and if so,
 529:FreeRTOS\src/timers.c **** 		obtain the time at which the next timer will expire. */
 530:FreeRTOS\src/timers.c **** 		xNextExpireTime = prvGetNextExpireTime( &xListWasEmpty );
 531:FreeRTOS\src/timers.c **** 
 532:FreeRTOS\src/timers.c **** 		/* If a timer has expired, process it.  Otherwise, block this task
 533:FreeRTOS\src/timers.c **** 		until either a timer does expire, or a command is received. */
 534:FreeRTOS\src/timers.c **** 		prvProcessTimerOrBlockTask( xNextExpireTime, xListWasEmpty );
 535:FreeRTOS\src/timers.c **** 
 536:FreeRTOS\src/timers.c **** 		/* Empty the command queue. */
 537:FreeRTOS\src/timers.c **** 		prvProcessReceivedCommands();
 538:FreeRTOS\src/timers.c **** 	}
 539:FreeRTOS\src/timers.c **** }
 540:FreeRTOS\src/timers.c **** /*-----------------------------------------------------------*/
 541:FreeRTOS\src/timers.c **** 
 542:FreeRTOS\src/timers.c **** static void prvProcessTimerOrBlockTask( const TickType_t xNextExpireTime, BaseType_t xListWasEmpty 
 543:FreeRTOS\src/timers.c **** {
 544:FreeRTOS\src/timers.c **** TickType_t xTimeNow;
ARM GAS  C:\Users\nicol\AppData\Local\Temp\ccYDRgtd.s 			page 11


 545:FreeRTOS\src/timers.c **** BaseType_t xTimerListsWereSwitched;
 546:FreeRTOS\src/timers.c **** 
 547:FreeRTOS\src/timers.c **** 	vTaskSuspendAll();
 548:FreeRTOS\src/timers.c **** 	{
 549:FreeRTOS\src/timers.c **** 		/* Obtain the time now to make an assessment as to whether the timer
 550:FreeRTOS\src/timers.c **** 		has expired or not.  If obtaining the time causes the lists to switch
 551:FreeRTOS\src/timers.c **** 		then don't process this timer as any timers that remained in the list
 552:FreeRTOS\src/timers.c **** 		when the lists were switched will have been processed within the
 553:FreeRTOS\src/timers.c **** 		prvSampleTimeNow() function. */
 554:FreeRTOS\src/timers.c **** 		xTimeNow = prvSampleTimeNow( &xTimerListsWereSwitched );
 555:FreeRTOS\src/timers.c **** 		if( xTimerListsWereSwitched == pdFALSE )
 556:FreeRTOS\src/timers.c **** 		{
 557:FreeRTOS\src/timers.c **** 			/* The tick count has not overflowed, has the timer expired? */
 558:FreeRTOS\src/timers.c **** 			if( ( xListWasEmpty == pdFALSE ) && ( xNextExpireTime <= xTimeNow ) )
 559:FreeRTOS\src/timers.c **** 			{
 560:FreeRTOS\src/timers.c **** 				( void ) xTaskResumeAll();
 561:FreeRTOS\src/timers.c **** 				prvProcessExpiredTimer( xNextExpireTime, xTimeNow );
 562:FreeRTOS\src/timers.c **** 			}
 563:FreeRTOS\src/timers.c **** 			else
 564:FreeRTOS\src/timers.c **** 			{
 565:FreeRTOS\src/timers.c **** 				/* The tick count has not overflowed, and the next expire
 566:FreeRTOS\src/timers.c **** 				time has not been reached yet.  This task should therefore
 567:FreeRTOS\src/timers.c **** 				block to wait for the next expire time or a command to be
 568:FreeRTOS\src/timers.c **** 				received - whichever comes first.  The following line cannot
 569:FreeRTOS\src/timers.c **** 				be reached unless xNextExpireTime > xTimeNow, except in the
 570:FreeRTOS\src/timers.c **** 				case when the current timer list is empty. */
 571:FreeRTOS\src/timers.c **** 				if( xListWasEmpty != pdFALSE )
 572:FreeRTOS\src/timers.c **** 				{
 573:FreeRTOS\src/timers.c **** 					/* The current timer list is empty - is the overflow list
 574:FreeRTOS\src/timers.c **** 					also empty? */
 575:FreeRTOS\src/timers.c **** 					xListWasEmpty = listLIST_IS_EMPTY( pxOverflowTimerList );
 576:FreeRTOS\src/timers.c **** 				}
 577:FreeRTOS\src/timers.c **** 
 578:FreeRTOS\src/timers.c **** 				vQueueWaitForMessageRestricted( xTimerQueue, ( xNextExpireTime - xTimeNow ), xListWasEmpty );
 579:FreeRTOS\src/timers.c **** 
 580:FreeRTOS\src/timers.c **** 				if( xTaskResumeAll() == pdFALSE )
 581:FreeRTOS\src/timers.c **** 				{
 582:FreeRTOS\src/timers.c **** 					/* Yield to wait for either a command to arrive, or the
 583:FreeRTOS\src/timers.c **** 					block time to expire.  If a command arrived between the
 584:FreeRTOS\src/timers.c **** 					critical section being exited and this yield then the yield
 585:FreeRTOS\src/timers.c **** 					will not cause the task to block. */
 586:FreeRTOS\src/timers.c **** 					portYIELD_WITHIN_API();
 587:FreeRTOS\src/timers.c **** 				}
 588:FreeRTOS\src/timers.c **** 				else
 589:FreeRTOS\src/timers.c **** 				{
 590:FreeRTOS\src/timers.c **** 					mtCOVERAGE_TEST_MARKER();
 591:FreeRTOS\src/timers.c **** 				}
 592:FreeRTOS\src/timers.c **** 			}
 593:FreeRTOS\src/timers.c **** 		}
 594:FreeRTOS\src/timers.c **** 		else
 595:FreeRTOS\src/timers.c **** 		{
 596:FreeRTOS\src/timers.c **** 			( void ) xTaskResumeAll();
 597:FreeRTOS\src/timers.c **** 		}
 598:FreeRTOS\src/timers.c **** 	}
 599:FreeRTOS\src/timers.c **** }
 600:FreeRTOS\src/timers.c **** /*-----------------------------------------------------------*/
 601:FreeRTOS\src/timers.c **** 
ARM GAS  C:\Users\nicol\AppData\Local\Temp\ccYDRgtd.s 			page 12


 602:FreeRTOS\src/timers.c **** static TickType_t prvGetNextExpireTime( BaseType_t * const pxListWasEmpty )
 603:FreeRTOS\src/timers.c **** {
  27              		.loc 1 603 0
  28              		.cfi_startproc
  29              		@ args = 0, pretend = 0, frame = 0
  30              		@ frame_needed = 0, uses_anonymous_args = 0
  31              		@ link register save eliminated.
  32              	.LVL0:
 604:FreeRTOS\src/timers.c **** TickType_t xNextExpireTime;
 605:FreeRTOS\src/timers.c **** 
 606:FreeRTOS\src/timers.c **** 	/* Timers are listed in expiry time order, with the head of the list
 607:FreeRTOS\src/timers.c **** 	referencing the task that will expire first.  Obtain the time at which
 608:FreeRTOS\src/timers.c **** 	the timer with the nearest expiry time will expire.  If there are no
 609:FreeRTOS\src/timers.c **** 	active timers then just set the next expire time to 0.  That will cause
 610:FreeRTOS\src/timers.c **** 	this task to unblock when the tick count overflows, at which point the
 611:FreeRTOS\src/timers.c **** 	timer lists will be switched and the next expiry time can be
 612:FreeRTOS\src/timers.c **** 	re-assessed.  */
 613:FreeRTOS\src/timers.c **** 	*pxListWasEmpty = listLIST_IS_EMPTY( pxCurrentTimerList );
  33              		.loc 1 613 0
  34 0000 064B     		ldr	r3, .L6
  35 0002 1A68     		ldr	r2, [r3]
  36 0004 1368     		ldr	r3, [r2]
  37 0006 0BB9     		cbnz	r3, .L4
  38 0008 0123     		movs	r3, #1
  39 000a 00E0     		b	.L2
  40              	.L4:
  41 000c 0023     		movs	r3, #0
  42              	.L2:
  43              		.loc 1 613 0 is_stmt 0 discriminator 4
  44 000e 0360     		str	r3, [r0]
 614:FreeRTOS\src/timers.c **** 	if( *pxListWasEmpty == pdFALSE )
  45              		.loc 1 614 0 is_stmt 1 discriminator 4
  46 0010 13B9     		cbnz	r3, .L5
 615:FreeRTOS\src/timers.c **** 	{
 616:FreeRTOS\src/timers.c **** 		xNextExpireTime = listGET_ITEM_VALUE_OF_HEAD_ENTRY( pxCurrentTimerList );
  47              		.loc 1 616 0
  48 0012 D368     		ldr	r3, [r2, #12]
  49 0014 1868     		ldr	r0, [r3]
  50              	.LVL1:
  51 0016 7047     		bx	lr
  52              	.LVL2:
  53              	.L5:
 617:FreeRTOS\src/timers.c **** 	}
 618:FreeRTOS\src/timers.c **** 	else
 619:FreeRTOS\src/timers.c **** 	{
 620:FreeRTOS\src/timers.c **** 		/* Ensure the task unblocks when the tick count rolls over. */
 621:FreeRTOS\src/timers.c **** 		xNextExpireTime = ( TickType_t ) 0U;
  54              		.loc 1 621 0
  55 0018 0020     		movs	r0, #0
  56              	.LVL3:
 622:FreeRTOS\src/timers.c **** 	}
 623:FreeRTOS\src/timers.c **** 
 624:FreeRTOS\src/timers.c **** 	return xNextExpireTime;
 625:FreeRTOS\src/timers.c **** }
  57              		.loc 1 625 0
  58 001a 7047     		bx	lr
  59              	.L7:
ARM GAS  C:\Users\nicol\AppData\Local\Temp\ccYDRgtd.s 			page 13


  60              		.align	2
  61              	.L6:
  62 001c 00000000 		.word	.LANCHOR0
  63              		.cfi_endproc
  64              	.LFE16:
  65              		.size	prvGetNextExpireTime, .-prvGetNextExpireTime
  66              		.section	.text.prvInsertTimerInActiveList,"ax",%progbits
  67              		.align	2
  68              		.thumb
  69              		.thumb_func
  70              		.type	prvInsertTimerInActiveList, %function
  71              	prvInsertTimerInActiveList:
  72              	.LFB18:
 626:FreeRTOS\src/timers.c **** /*-----------------------------------------------------------*/
 627:FreeRTOS\src/timers.c **** 
 628:FreeRTOS\src/timers.c **** static TickType_t prvSampleTimeNow( BaseType_t * const pxTimerListsWereSwitched )
 629:FreeRTOS\src/timers.c **** {
 630:FreeRTOS\src/timers.c **** TickType_t xTimeNow;
 631:FreeRTOS\src/timers.c **** PRIVILEGED_DATA static TickType_t xLastTime = ( TickType_t ) 0U; /*lint !e956 Variable is only acce
 632:FreeRTOS\src/timers.c **** 
 633:FreeRTOS\src/timers.c **** 	xTimeNow = xTaskGetTickCount();
 634:FreeRTOS\src/timers.c **** 
 635:FreeRTOS\src/timers.c **** 	if( xTimeNow < xLastTime )
 636:FreeRTOS\src/timers.c **** 	{
 637:FreeRTOS\src/timers.c **** 		prvSwitchTimerLists();
 638:FreeRTOS\src/timers.c **** 		*pxTimerListsWereSwitched = pdTRUE;
 639:FreeRTOS\src/timers.c **** 	}
 640:FreeRTOS\src/timers.c **** 	else
 641:FreeRTOS\src/timers.c **** 	{
 642:FreeRTOS\src/timers.c **** 		*pxTimerListsWereSwitched = pdFALSE;
 643:FreeRTOS\src/timers.c **** 	}
 644:FreeRTOS\src/timers.c **** 
 645:FreeRTOS\src/timers.c **** 	xLastTime = xTimeNow;
 646:FreeRTOS\src/timers.c **** 
 647:FreeRTOS\src/timers.c **** 	return xTimeNow;
 648:FreeRTOS\src/timers.c **** }
 649:FreeRTOS\src/timers.c **** /*-----------------------------------------------------------*/
 650:FreeRTOS\src/timers.c **** 
 651:FreeRTOS\src/timers.c **** static BaseType_t prvInsertTimerInActiveList( Timer_t * const pxTimer, const TickType_t xNextExpiry
 652:FreeRTOS\src/timers.c **** {
  73              		.loc 1 652 0
  74              		.cfi_startproc
  75              		@ args = 0, pretend = 0, frame = 0
  76              		@ frame_needed = 0, uses_anonymous_args = 0
  77              	.LVL4:
  78 0000 08B5     		push	{r3, lr}
  79              		.cfi_def_cfa_offset 8
  80              		.cfi_offset 3, -8
  81              		.cfi_offset 14, -4
  82              	.LVL5:
 653:FreeRTOS\src/timers.c **** BaseType_t xProcessTimerNow = pdFALSE;
 654:FreeRTOS\src/timers.c **** 
 655:FreeRTOS\src/timers.c **** 	listSET_LIST_ITEM_VALUE( &( pxTimer->xTimerListItem ), xNextExpiryTime );
  83              		.loc 1 655 0
  84 0002 4160     		str	r1, [r0, #4]
 656:FreeRTOS\src/timers.c **** 	listSET_LIST_ITEM_OWNER( &( pxTimer->xTimerListItem ), pxTimer );
  85              		.loc 1 656 0
ARM GAS  C:\Users\nicol\AppData\Local\Temp\ccYDRgtd.s 			page 14


  86 0004 0061     		str	r0, [r0, #16]
 657:FreeRTOS\src/timers.c **** 
 658:FreeRTOS\src/timers.c **** 	if( xNextExpiryTime <= xTimeNow )
  87              		.loc 1 658 0
  88 0006 9142     		cmp	r1, r2
  89 0008 0AD8     		bhi	.L9
 659:FreeRTOS\src/timers.c **** 	{
 660:FreeRTOS\src/timers.c **** 		/* Has the expiry time elapsed between the command to start/reset a
 661:FreeRTOS\src/timers.c **** 		timer was issued, and the time the command was processed? */
 662:FreeRTOS\src/timers.c **** 		if( ( ( TickType_t ) ( xTimeNow - xCommandTime ) ) >= pxTimer->xTimerPeriodInTicks ) /*lint !e961
  90              		.loc 1 662 0
  91 000a D21A     		subs	r2, r2, r3
  92              	.LVL6:
  93 000c 8369     		ldr	r3, [r0, #24]
  94              	.LVL7:
  95 000e 9A42     		cmp	r2, r3
  96 0010 11D2     		bcs	.L12
 663:FreeRTOS\src/timers.c **** 		{
 664:FreeRTOS\src/timers.c **** 			/* The time between a command being issued and the command being
 665:FreeRTOS\src/timers.c **** 			processed actually exceeds the timers period.  */
 666:FreeRTOS\src/timers.c **** 			xProcessTimerNow = pdTRUE;
 667:FreeRTOS\src/timers.c **** 		}
 668:FreeRTOS\src/timers.c **** 		else
 669:FreeRTOS\src/timers.c **** 		{
 670:FreeRTOS\src/timers.c **** 			vListInsert( pxOverflowTimerList, &( pxTimer->xTimerListItem ) );
  97              		.loc 1 670 0
  98 0012 011D     		adds	r1, r0, #4
  99              	.LVL8:
 100 0014 0A4B     		ldr	r3, .L15
 101 0016 5868     		ldr	r0, [r3, #4]
 102              	.LVL9:
 103 0018 FFF7FEFF 		bl	vListInsert
 104              	.LVL10:
 653:FreeRTOS\src/timers.c **** 
 105              		.loc 1 653 0
 106 001c 0020     		movs	r0, #0
 107 001e 08BD     		pop	{r3, pc}
 108              	.LVL11:
 109              	.L9:
 671:FreeRTOS\src/timers.c **** 		}
 672:FreeRTOS\src/timers.c **** 	}
 673:FreeRTOS\src/timers.c **** 	else
 674:FreeRTOS\src/timers.c **** 	{
 675:FreeRTOS\src/timers.c **** 		if( ( xTimeNow < xCommandTime ) && ( xNextExpiryTime >= xCommandTime ) )
 110              		.loc 1 675 0
 111 0020 9A42     		cmp	r2, r3
 112 0022 01D2     		bcs	.L11
 113              		.loc 1 675 0 is_stmt 0 discriminator 1
 114 0024 9942     		cmp	r1, r3
 115 0026 08D2     		bcs	.L13
 116              	.L11:
 676:FreeRTOS\src/timers.c **** 		{
 677:FreeRTOS\src/timers.c **** 			/* If, since the command was issued, the tick count has overflowed
 678:FreeRTOS\src/timers.c **** 			but the expiry time has not, then the timer must have already passed
 679:FreeRTOS\src/timers.c **** 			its expiry time and should be processed immediately. */
 680:FreeRTOS\src/timers.c **** 			xProcessTimerNow = pdTRUE;
 681:FreeRTOS\src/timers.c **** 		}
ARM GAS  C:\Users\nicol\AppData\Local\Temp\ccYDRgtd.s 			page 15


 682:FreeRTOS\src/timers.c **** 		else
 683:FreeRTOS\src/timers.c **** 		{
 684:FreeRTOS\src/timers.c **** 			vListInsert( pxCurrentTimerList, &( pxTimer->xTimerListItem ) );
 117              		.loc 1 684 0 is_stmt 1
 118 0028 011D     		adds	r1, r0, #4
 119              	.LVL12:
 120 002a 054B     		ldr	r3, .L15
 121              	.LVL13:
 122 002c 1868     		ldr	r0, [r3]
 123              	.LVL14:
 124 002e FFF7FEFF 		bl	vListInsert
 125              	.LVL15:
 653:FreeRTOS\src/timers.c **** 
 126              		.loc 1 653 0
 127 0032 0020     		movs	r0, #0
 128 0034 08BD     		pop	{r3, pc}
 129              	.LVL16:
 130              	.L12:
 666:FreeRTOS\src/timers.c **** 		}
 131              		.loc 1 666 0
 132 0036 0120     		movs	r0, #1
 133              	.LVL17:
 134 0038 08BD     		pop	{r3, pc}
 135              	.LVL18:
 136              	.L13:
 680:FreeRTOS\src/timers.c **** 		}
 137              		.loc 1 680 0
 138 003a 0120     		movs	r0, #1
 139              	.LVL19:
 685:FreeRTOS\src/timers.c **** 		}
 686:FreeRTOS\src/timers.c **** 	}
 687:FreeRTOS\src/timers.c **** 
 688:FreeRTOS\src/timers.c **** 	return xProcessTimerNow;
 689:FreeRTOS\src/timers.c **** }
 140              		.loc 1 689 0
 141 003c 08BD     		pop	{r3, pc}
 142              	.LVL20:
 143              	.L16:
 144 003e 00BF     		.align	2
 145              	.L15:
 146 0040 00000000 		.word	.LANCHOR0
 147              		.cfi_endproc
 148              	.LFE18:
 149              		.size	prvInsertTimerInActiveList, .-prvInsertTimerInActiveList
 150              		.section	.text.prvCheckForValidListAndQueue,"ax",%progbits
 151              		.align	2
 152              		.thumb
 153              		.thumb_func
 154              		.type	prvCheckForValidListAndQueue, %function
 155              	prvCheckForValidListAndQueue:
 156              	.LFB21:
 690:FreeRTOS\src/timers.c **** /*-----------------------------------------------------------*/
 691:FreeRTOS\src/timers.c **** 
 692:FreeRTOS\src/timers.c **** static void	prvProcessReceivedCommands( void )
 693:FreeRTOS\src/timers.c **** {
 694:FreeRTOS\src/timers.c **** DaemonTaskMessage_t xMessage;
 695:FreeRTOS\src/timers.c **** Timer_t *pxTimer;
ARM GAS  C:\Users\nicol\AppData\Local\Temp\ccYDRgtd.s 			page 16


 696:FreeRTOS\src/timers.c **** BaseType_t xTimerListsWereSwitched, xResult;
 697:FreeRTOS\src/timers.c **** TickType_t xTimeNow;
 698:FreeRTOS\src/timers.c **** 
 699:FreeRTOS\src/timers.c **** 	while( xQueueReceive( xTimerQueue, &xMessage, tmrNO_DELAY ) != pdFAIL ) /*lint !e603 xMessage does
 700:FreeRTOS\src/timers.c **** 	{
 701:FreeRTOS\src/timers.c **** 		#if ( INCLUDE_xTimerPendFunctionCall == 1 )
 702:FreeRTOS\src/timers.c **** 		{
 703:FreeRTOS\src/timers.c **** 			/* Negative commands are pended function calls rather than timer
 704:FreeRTOS\src/timers.c **** 			commands. */
 705:FreeRTOS\src/timers.c **** 			if( xMessage.xMessageID < ( BaseType_t ) 0 )
 706:FreeRTOS\src/timers.c **** 			{
 707:FreeRTOS\src/timers.c **** 				const CallbackParameters_t * const pxCallback = &( xMessage.u.xCallbackParameters );
 708:FreeRTOS\src/timers.c **** 
 709:FreeRTOS\src/timers.c **** 				/* The timer uses the xCallbackParameters member to request a
 710:FreeRTOS\src/timers.c **** 				callback be executed.  Check the callback is not NULL. */
 711:FreeRTOS\src/timers.c **** 				configASSERT( pxCallback );
 712:FreeRTOS\src/timers.c **** 
 713:FreeRTOS\src/timers.c **** 				/* Call the function. */
 714:FreeRTOS\src/timers.c **** 				pxCallback->pxCallbackFunction( pxCallback->pvParameter1, pxCallback->ulParameter2 );
 715:FreeRTOS\src/timers.c **** 			}
 716:FreeRTOS\src/timers.c **** 			else
 717:FreeRTOS\src/timers.c **** 			{
 718:FreeRTOS\src/timers.c **** 				mtCOVERAGE_TEST_MARKER();
 719:FreeRTOS\src/timers.c **** 			}
 720:FreeRTOS\src/timers.c **** 		}
 721:FreeRTOS\src/timers.c **** 		#endif /* INCLUDE_xTimerPendFunctionCall */
 722:FreeRTOS\src/timers.c **** 
 723:FreeRTOS\src/timers.c **** 		/* Commands that are positive are timer commands rather than pended
 724:FreeRTOS\src/timers.c **** 		function calls. */
 725:FreeRTOS\src/timers.c **** 		if( xMessage.xMessageID >= ( BaseType_t ) 0 )
 726:FreeRTOS\src/timers.c **** 		{
 727:FreeRTOS\src/timers.c **** 			/* The messages uses the xTimerParameters member to work on a
 728:FreeRTOS\src/timers.c **** 			software timer. */
 729:FreeRTOS\src/timers.c **** 			pxTimer = xMessage.u.xTimerParameters.pxTimer;
 730:FreeRTOS\src/timers.c **** 
 731:FreeRTOS\src/timers.c **** 			if( listIS_CONTAINED_WITHIN( NULL, &( pxTimer->xTimerListItem ) ) == pdFALSE ) /*lint !e961. The
 732:FreeRTOS\src/timers.c **** 			{
 733:FreeRTOS\src/timers.c **** 				/* The timer is in a list, remove it. */
 734:FreeRTOS\src/timers.c **** 				( void ) uxListRemove( &( pxTimer->xTimerListItem ) );
 735:FreeRTOS\src/timers.c **** 			}
 736:FreeRTOS\src/timers.c **** 			else
 737:FreeRTOS\src/timers.c **** 			{
 738:FreeRTOS\src/timers.c **** 				mtCOVERAGE_TEST_MARKER();
 739:FreeRTOS\src/timers.c **** 			}
 740:FreeRTOS\src/timers.c **** 
 741:FreeRTOS\src/timers.c **** 			traceTIMER_COMMAND_RECEIVED( pxTimer, xMessage.xMessageID, xMessage.u.xTimerParameters.xMessageV
 742:FreeRTOS\src/timers.c **** 
 743:FreeRTOS\src/timers.c **** 			/* In this case the xTimerListsWereSwitched parameter is not used, but
 744:FreeRTOS\src/timers.c **** 			it must be present in the function call.  prvSampleTimeNow() must be
 745:FreeRTOS\src/timers.c **** 			called after the message is received from xTimerQueue so there is no
 746:FreeRTOS\src/timers.c **** 			possibility of a higher priority task adding a message to the message
 747:FreeRTOS\src/timers.c **** 			queue with a time that is ahead of the timer daemon task (because it
 748:FreeRTOS\src/timers.c **** 			pre-empted the timer daemon task after the xTimeNow value was set). */
 749:FreeRTOS\src/timers.c **** 			xTimeNow = prvSampleTimeNow( &xTimerListsWereSwitched );
 750:FreeRTOS\src/timers.c **** 
 751:FreeRTOS\src/timers.c **** 			switch( xMessage.xMessageID )
 752:FreeRTOS\src/timers.c **** 			{
ARM GAS  C:\Users\nicol\AppData\Local\Temp\ccYDRgtd.s 			page 17


 753:FreeRTOS\src/timers.c **** 				case tmrCOMMAND_START :
 754:FreeRTOS\src/timers.c **** 			    case tmrCOMMAND_START_FROM_ISR :
 755:FreeRTOS\src/timers.c **** 			    case tmrCOMMAND_RESET :
 756:FreeRTOS\src/timers.c **** 			    case tmrCOMMAND_RESET_FROM_ISR :
 757:FreeRTOS\src/timers.c **** 				case tmrCOMMAND_START_DONT_TRACE :
 758:FreeRTOS\src/timers.c **** 					/* Start or restart a timer. */
 759:FreeRTOS\src/timers.c **** 					if( prvInsertTimerInActiveList( pxTimer,  xMessage.u.xTimerParameters.xMessageValue + pxTimer-
 760:FreeRTOS\src/timers.c **** 					{
 761:FreeRTOS\src/timers.c **** 						/* The timer expired before it was added to the active
 762:FreeRTOS\src/timers.c **** 						timer list.  Process it now. */
 763:FreeRTOS\src/timers.c **** 						pxTimer->pxCallbackFunction( ( TimerHandle_t ) pxTimer );
 764:FreeRTOS\src/timers.c **** 						traceTIMER_EXPIRED( pxTimer );
 765:FreeRTOS\src/timers.c **** 
 766:FreeRTOS\src/timers.c **** 						if( pxTimer->uxAutoReload == ( UBaseType_t ) pdTRUE )
 767:FreeRTOS\src/timers.c **** 						{
 768:FreeRTOS\src/timers.c **** 							xResult = xTimerGenericCommand( pxTimer, tmrCOMMAND_START_DONT_TRACE, xMessage.u.xTimerParam
 769:FreeRTOS\src/timers.c **** 							configASSERT( xResult );
 770:FreeRTOS\src/timers.c **** 							( void ) xResult;
 771:FreeRTOS\src/timers.c **** 						}
 772:FreeRTOS\src/timers.c **** 						else
 773:FreeRTOS\src/timers.c **** 						{
 774:FreeRTOS\src/timers.c **** 							mtCOVERAGE_TEST_MARKER();
 775:FreeRTOS\src/timers.c **** 						}
 776:FreeRTOS\src/timers.c **** 					}
 777:FreeRTOS\src/timers.c **** 					else
 778:FreeRTOS\src/timers.c **** 					{
 779:FreeRTOS\src/timers.c **** 						mtCOVERAGE_TEST_MARKER();
 780:FreeRTOS\src/timers.c **** 					}
 781:FreeRTOS\src/timers.c **** 					break;
 782:FreeRTOS\src/timers.c **** 
 783:FreeRTOS\src/timers.c **** 				case tmrCOMMAND_STOP :
 784:FreeRTOS\src/timers.c **** 				case tmrCOMMAND_STOP_FROM_ISR :
 785:FreeRTOS\src/timers.c **** 					/* The timer has already been removed from the active list.
 786:FreeRTOS\src/timers.c **** 					There is nothing to do here. */
 787:FreeRTOS\src/timers.c **** 					break;
 788:FreeRTOS\src/timers.c **** 
 789:FreeRTOS\src/timers.c **** 				case tmrCOMMAND_CHANGE_PERIOD :
 790:FreeRTOS\src/timers.c **** 				case tmrCOMMAND_CHANGE_PERIOD_FROM_ISR :
 791:FreeRTOS\src/timers.c **** 					pxTimer->xTimerPeriodInTicks = xMessage.u.xTimerParameters.xMessageValue;
 792:FreeRTOS\src/timers.c **** 					configASSERT( ( pxTimer->xTimerPeriodInTicks > 0 ) );
 793:FreeRTOS\src/timers.c **** 
 794:FreeRTOS\src/timers.c **** 					/* The new period does not really have a reference, and can
 795:FreeRTOS\src/timers.c **** 					be longer or shorter than the old one.  The command time is
 796:FreeRTOS\src/timers.c **** 					therefore set to the current time, and as the period cannot
 797:FreeRTOS\src/timers.c **** 					be zero the next expiry time can only be in the future,
 798:FreeRTOS\src/timers.c **** 					meaning (unlike for the xTimerStart() case above) there is
 799:FreeRTOS\src/timers.c **** 					no fail case that needs to be handled here. */
 800:FreeRTOS\src/timers.c **** 					( void ) prvInsertTimerInActiveList( pxTimer, ( xTimeNow + pxTimer->xTimerPeriodInTicks ), xTi
 801:FreeRTOS\src/timers.c **** 					break;
 802:FreeRTOS\src/timers.c **** 
 803:FreeRTOS\src/timers.c **** 				case tmrCOMMAND_DELETE :
 804:FreeRTOS\src/timers.c **** 					/* The timer has already been removed from the active list,
 805:FreeRTOS\src/timers.c **** 					just free up the memory if the memory was dynamically
 806:FreeRTOS\src/timers.c **** 					allocated. */
 807:FreeRTOS\src/timers.c **** 					#if( ( configSUPPORT_DYNAMIC_ALLOCATION == 1 ) && ( configSUPPORT_STATIC_ALLOCATION == 0 ) )
 808:FreeRTOS\src/timers.c **** 					{
 809:FreeRTOS\src/timers.c **** 						/* The timer can only have been allocated dynamically -
ARM GAS  C:\Users\nicol\AppData\Local\Temp\ccYDRgtd.s 			page 18


 810:FreeRTOS\src/timers.c **** 						free it again. */
 811:FreeRTOS\src/timers.c **** 						vPortFree( pxTimer );
 812:FreeRTOS\src/timers.c **** 					}
 813:FreeRTOS\src/timers.c **** 					#elif( ( configSUPPORT_DYNAMIC_ALLOCATION == 1 ) && ( configSUPPORT_STATIC_ALLOCATION == 1 ) )
 814:FreeRTOS\src/timers.c **** 					{
 815:FreeRTOS\src/timers.c **** 						/* The timer could have been allocated statically or
 816:FreeRTOS\src/timers.c **** 						dynamically, so check before attempting to free the
 817:FreeRTOS\src/timers.c **** 						memory. */
 818:FreeRTOS\src/timers.c **** 						if( pxTimer->ucStaticallyAllocated == ( uint8_t ) pdFALSE )
 819:FreeRTOS\src/timers.c **** 						{
 820:FreeRTOS\src/timers.c **** 							vPortFree( pxTimer );
 821:FreeRTOS\src/timers.c **** 						}
 822:FreeRTOS\src/timers.c **** 						else
 823:FreeRTOS\src/timers.c **** 						{
 824:FreeRTOS\src/timers.c **** 							mtCOVERAGE_TEST_MARKER();
 825:FreeRTOS\src/timers.c **** 						}
 826:FreeRTOS\src/timers.c **** 					}
 827:FreeRTOS\src/timers.c **** 					#endif /* configSUPPORT_DYNAMIC_ALLOCATION */
 828:FreeRTOS\src/timers.c **** 					break;
 829:FreeRTOS\src/timers.c **** 
 830:FreeRTOS\src/timers.c **** 				default	:
 831:FreeRTOS\src/timers.c **** 					/* Don't expect to get here. */
 832:FreeRTOS\src/timers.c **** 					break;
 833:FreeRTOS\src/timers.c **** 			}
 834:FreeRTOS\src/timers.c **** 		}
 835:FreeRTOS\src/timers.c **** 	}
 836:FreeRTOS\src/timers.c **** }
 837:FreeRTOS\src/timers.c **** /*-----------------------------------------------------------*/
 838:FreeRTOS\src/timers.c **** 
 839:FreeRTOS\src/timers.c **** static void prvSwitchTimerLists( void )
 840:FreeRTOS\src/timers.c **** {
 841:FreeRTOS\src/timers.c **** TickType_t xNextExpireTime, xReloadTime;
 842:FreeRTOS\src/timers.c **** List_t *pxTemp;
 843:FreeRTOS\src/timers.c **** Timer_t *pxTimer;
 844:FreeRTOS\src/timers.c **** BaseType_t xResult;
 845:FreeRTOS\src/timers.c **** 
 846:FreeRTOS\src/timers.c **** 	/* The tick count has overflowed.  The timer lists must be switched.
 847:FreeRTOS\src/timers.c **** 	If there are any timers still referenced from the current timer list
 848:FreeRTOS\src/timers.c **** 	then they must have expired and should be processed before the lists
 849:FreeRTOS\src/timers.c **** 	are switched. */
 850:FreeRTOS\src/timers.c **** 	while( listLIST_IS_EMPTY( pxCurrentTimerList ) == pdFALSE )
 851:FreeRTOS\src/timers.c **** 	{
 852:FreeRTOS\src/timers.c **** 		xNextExpireTime = listGET_ITEM_VALUE_OF_HEAD_ENTRY( pxCurrentTimerList );
 853:FreeRTOS\src/timers.c **** 
 854:FreeRTOS\src/timers.c **** 		/* Remove the timer from the list. */
 855:FreeRTOS\src/timers.c **** 		pxTimer = ( Timer_t * ) listGET_OWNER_OF_HEAD_ENTRY( pxCurrentTimerList ); /*lint !e9087 !e9079 v
 856:FreeRTOS\src/timers.c **** 		( void ) uxListRemove( &( pxTimer->xTimerListItem ) );
 857:FreeRTOS\src/timers.c **** 		traceTIMER_EXPIRED( pxTimer );
 858:FreeRTOS\src/timers.c **** 
 859:FreeRTOS\src/timers.c **** 		/* Execute its callback, then send a command to restart the timer if
 860:FreeRTOS\src/timers.c **** 		it is an auto-reload timer.  It cannot be restarted here as the lists
 861:FreeRTOS\src/timers.c **** 		have not yet been switched. */
 862:FreeRTOS\src/timers.c **** 		pxTimer->pxCallbackFunction( ( TimerHandle_t ) pxTimer );
 863:FreeRTOS\src/timers.c **** 
 864:FreeRTOS\src/timers.c **** 		if( pxTimer->uxAutoReload == ( UBaseType_t ) pdTRUE )
 865:FreeRTOS\src/timers.c **** 		{
 866:FreeRTOS\src/timers.c **** 			/* Calculate the reload value, and if the reload value results in
ARM GAS  C:\Users\nicol\AppData\Local\Temp\ccYDRgtd.s 			page 19


 867:FreeRTOS\src/timers.c **** 			the timer going into the same timer list then it has already expired
 868:FreeRTOS\src/timers.c **** 			and the timer should be re-inserted into the current list so it is
 869:FreeRTOS\src/timers.c **** 			processed again within this loop.  Otherwise a command should be sent
 870:FreeRTOS\src/timers.c **** 			to restart the timer to ensure it is only inserted into a list after
 871:FreeRTOS\src/timers.c **** 			the lists have been swapped. */
 872:FreeRTOS\src/timers.c **** 			xReloadTime = ( xNextExpireTime + pxTimer->xTimerPeriodInTicks );
 873:FreeRTOS\src/timers.c **** 			if( xReloadTime > xNextExpireTime )
 874:FreeRTOS\src/timers.c **** 			{
 875:FreeRTOS\src/timers.c **** 				listSET_LIST_ITEM_VALUE( &( pxTimer->xTimerListItem ), xReloadTime );
 876:FreeRTOS\src/timers.c **** 				listSET_LIST_ITEM_OWNER( &( pxTimer->xTimerListItem ), pxTimer );
 877:FreeRTOS\src/timers.c **** 				vListInsert( pxCurrentTimerList, &( pxTimer->xTimerListItem ) );
 878:FreeRTOS\src/timers.c **** 			}
 879:FreeRTOS\src/timers.c **** 			else
 880:FreeRTOS\src/timers.c **** 			{
 881:FreeRTOS\src/timers.c **** 				xResult = xTimerGenericCommand( pxTimer, tmrCOMMAND_START_DONT_TRACE, xNextExpireTime, NULL, tm
 882:FreeRTOS\src/timers.c **** 				configASSERT( xResult );
 883:FreeRTOS\src/timers.c **** 				( void ) xResult;
 884:FreeRTOS\src/timers.c **** 			}
 885:FreeRTOS\src/timers.c **** 		}
 886:FreeRTOS\src/timers.c **** 		else
 887:FreeRTOS\src/timers.c **** 		{
 888:FreeRTOS\src/timers.c **** 			mtCOVERAGE_TEST_MARKER();
 889:FreeRTOS\src/timers.c **** 		}
 890:FreeRTOS\src/timers.c **** 	}
 891:FreeRTOS\src/timers.c **** 
 892:FreeRTOS\src/timers.c **** 	pxTemp = pxCurrentTimerList;
 893:FreeRTOS\src/timers.c **** 	pxCurrentTimerList = pxOverflowTimerList;
 894:FreeRTOS\src/timers.c **** 	pxOverflowTimerList = pxTemp;
 895:FreeRTOS\src/timers.c **** }
 896:FreeRTOS\src/timers.c **** /*-----------------------------------------------------------*/
 897:FreeRTOS\src/timers.c **** 
 898:FreeRTOS\src/timers.c **** static void prvCheckForValidListAndQueue( void )
 899:FreeRTOS\src/timers.c **** {
 157              		.loc 1 899 0
 158              		.cfi_startproc
 159              		@ args = 0, pretend = 0, frame = 0
 160              		@ frame_needed = 0, uses_anonymous_args = 0
 161 0000 70B5     		push	{r4, r5, r6, lr}
 162              		.cfi_def_cfa_offset 16
 163              		.cfi_offset 4, -16
 164              		.cfi_offset 5, -12
 165              		.cfi_offset 6, -8
 166              		.cfi_offset 14, -4
 900:FreeRTOS\src/timers.c **** 	/* Check that the list from which active timers are referenced, and the
 901:FreeRTOS\src/timers.c **** 	queue used to communicate with the timer service, have been
 902:FreeRTOS\src/timers.c **** 	initialised. */
 903:FreeRTOS\src/timers.c **** 	taskENTER_CRITICAL();
 167              		.loc 1 903 0
 168 0002 FFF7FEFF 		bl	vPortEnterCritical
 169              	.LVL21:
 904:FreeRTOS\src/timers.c **** 	{
 905:FreeRTOS\src/timers.c **** 		if( xTimerQueue == NULL )
 170              		.loc 1 905 0
 171 0006 0E4B     		ldr	r3, .L20
 172 0008 9B68     		ldr	r3, [r3, #8]
 173 000a B3B9     		cbnz	r3, .L18
 906:FreeRTOS\src/timers.c **** 		{
ARM GAS  C:\Users\nicol\AppData\Local\Temp\ccYDRgtd.s 			page 20


 907:FreeRTOS\src/timers.c **** 			vListInitialise( &xActiveTimerList1 );
 174              		.loc 1 907 0
 175 000c 0C4C     		ldr	r4, .L20
 176 000e 04F10C06 		add	r6, r4, #12
 177 0012 3046     		mov	r0, r6
 178 0014 FFF7FEFF 		bl	vListInitialise
 179              	.LVL22:
 908:FreeRTOS\src/timers.c **** 			vListInitialise( &xActiveTimerList2 );
 180              		.loc 1 908 0
 181 0018 04F12005 		add	r5, r4, #32
 182 001c 2846     		mov	r0, r5
 183 001e FFF7FEFF 		bl	vListInitialise
 184              	.LVL23:
 909:FreeRTOS\src/timers.c **** 			pxCurrentTimerList = &xActiveTimerList1;
 185              		.loc 1 909 0
 186 0022 2660     		str	r6, [r4]
 910:FreeRTOS\src/timers.c **** 			pxOverflowTimerList = &xActiveTimerList2;
 187              		.loc 1 910 0
 188 0024 6560     		str	r5, [r4, #4]
 911:FreeRTOS\src/timers.c **** 
 912:FreeRTOS\src/timers.c **** 			#if( configSUPPORT_STATIC_ALLOCATION == 1 )
 913:FreeRTOS\src/timers.c **** 			{
 914:FreeRTOS\src/timers.c **** 				/* The timer queue is allocated statically in case
 915:FreeRTOS\src/timers.c **** 				configSUPPORT_DYNAMIC_ALLOCATION is 0. */
 916:FreeRTOS\src/timers.c **** 				static StaticQueue_t xStaticTimerQueue; /*lint !e956 Ok to declare in this manner to prevent ad
 917:FreeRTOS\src/timers.c **** 				static uint8_t ucStaticTimerQueueStorage[ ( size_t ) configTIMER_QUEUE_LENGTH * sizeof( DaemonT
 918:FreeRTOS\src/timers.c **** 
 919:FreeRTOS\src/timers.c **** 				xTimerQueue = xQueueCreateStatic( ( UBaseType_t ) configTIMER_QUEUE_LENGTH, ( UBaseType_t ) siz
 920:FreeRTOS\src/timers.c **** 			}
 921:FreeRTOS\src/timers.c **** 			#else
 922:FreeRTOS\src/timers.c **** 			{
 923:FreeRTOS\src/timers.c **** 				xTimerQueue = xQueueCreate( ( UBaseType_t ) configTIMER_QUEUE_LENGTH, sizeof( DaemonTaskMessage
 189              		.loc 1 923 0
 190 0026 0022     		movs	r2, #0
 191 0028 0C21     		movs	r1, #12
 192 002a 0A20     		movs	r0, #10
 193 002c FFF7FEFF 		bl	xQueueGenericCreate
 194              	.LVL24:
 195 0030 A060     		str	r0, [r4, #8]
 924:FreeRTOS\src/timers.c **** 			}
 925:FreeRTOS\src/timers.c **** 			#endif
 926:FreeRTOS\src/timers.c **** 
 927:FreeRTOS\src/timers.c **** 			#if ( configQUEUE_REGISTRY_SIZE > 0 )
 928:FreeRTOS\src/timers.c **** 			{
 929:FreeRTOS\src/timers.c **** 				if( xTimerQueue != NULL )
 196              		.loc 1 929 0
 197 0032 10B1     		cbz	r0, .L18
 930:FreeRTOS\src/timers.c **** 				{
 931:FreeRTOS\src/timers.c **** 					vQueueAddToRegistry( xTimerQueue, "TmrQ" );
 198              		.loc 1 931 0
 199 0034 0349     		ldr	r1, .L20+4
 200 0036 FFF7FEFF 		bl	vQueueAddToRegistry
 201              	.LVL25:
 202              	.L18:
 932:FreeRTOS\src/timers.c **** 				}
 933:FreeRTOS\src/timers.c **** 				else
 934:FreeRTOS\src/timers.c **** 				{
ARM GAS  C:\Users\nicol\AppData\Local\Temp\ccYDRgtd.s 			page 21


 935:FreeRTOS\src/timers.c **** 					mtCOVERAGE_TEST_MARKER();
 936:FreeRTOS\src/timers.c **** 				}
 937:FreeRTOS\src/timers.c **** 			}
 938:FreeRTOS\src/timers.c **** 			#endif /* configQUEUE_REGISTRY_SIZE */
 939:FreeRTOS\src/timers.c **** 		}
 940:FreeRTOS\src/timers.c **** 		else
 941:FreeRTOS\src/timers.c **** 		{
 942:FreeRTOS\src/timers.c **** 			mtCOVERAGE_TEST_MARKER();
 943:FreeRTOS\src/timers.c **** 		}
 944:FreeRTOS\src/timers.c **** 	}
 945:FreeRTOS\src/timers.c **** 	taskEXIT_CRITICAL();
 203              		.loc 1 945 0
 204 003a FFF7FEFF 		bl	vPortExitCritical
 205              	.LVL26:
 206 003e 70BD     		pop	{r4, r5, r6, pc}
 207              	.L21:
 208              		.align	2
 209              	.L20:
 210 0040 00000000 		.word	.LANCHOR0
 211 0044 00000000 		.word	.LC0
 212              		.cfi_endproc
 213              	.LFE21:
 214              		.size	prvCheckForValidListAndQueue, .-prvCheckForValidListAndQueue
 215              		.section	.text.prvInitialiseNewTimer,"ax",%progbits
 216              		.align	2
 217              		.thumb
 218              		.thumb_func
 219              		.type	prvInitialiseNewTimer, %function
 220              	prvInitialiseNewTimer:
 221              	.LFB7:
 362:FreeRTOS\src/timers.c **** 	/* 0 is not a valid value for xTimerPeriodInTicks. */
 222              		.loc 1 362 0
 223              		.cfi_startproc
 224              		@ args = 8, pretend = 0, frame = 0
 225              		@ frame_needed = 0, uses_anonymous_args = 0
 226              	.LVL27:
 227 0000 2DE9F041 		push	{r4, r5, r6, r7, r8, lr}
 228              		.cfi_def_cfa_offset 24
 229              		.cfi_offset 4, -24
 230              		.cfi_offset 5, -20
 231              		.cfi_offset 6, -16
 232              		.cfi_offset 7, -12
 233              		.cfi_offset 8, -8
 234              		.cfi_offset 14, -4
 235 0004 079C     		ldr	r4, [sp, #28]
 366:FreeRTOS\src/timers.c **** 	{
 236              		.loc 1 366 0
 237 0006 7CB1     		cbz	r4, .L22
 238 0008 1D46     		mov	r5, r3
 239 000a 1646     		mov	r6, r2
 240 000c 0F46     		mov	r7, r1
 241 000e 8046     		mov	r8, r0
 370:FreeRTOS\src/timers.c **** 
 242              		.loc 1 370 0
 243 0010 FFF7FEFF 		bl	prvCheckForValidListAndQueue
 244              	.LVL28:
 374:FreeRTOS\src/timers.c **** 		pxNewTimer->xTimerPeriodInTicks = xTimerPeriodInTicks;
ARM GAS  C:\Users\nicol\AppData\Local\Temp\ccYDRgtd.s 			page 22


 245              		.loc 1 374 0
 246 0014 C4F80080 		str	r8, [r4]
 375:FreeRTOS\src/timers.c **** 		pxNewTimer->uxAutoReload = uxAutoReload;
 247              		.loc 1 375 0
 248 0018 A761     		str	r7, [r4, #24]
 376:FreeRTOS\src/timers.c **** 		pxNewTimer->pvTimerID = pvTimerID;
 249              		.loc 1 376 0
 250 001a E661     		str	r6, [r4, #28]
 377:FreeRTOS\src/timers.c **** 		pxNewTimer->pxCallbackFunction = pxCallbackFunction;
 251              		.loc 1 377 0
 252 001c 2562     		str	r5, [r4, #32]
 378:FreeRTOS\src/timers.c **** 		vListInitialiseItem( &( pxNewTimer->xTimerListItem ) );
 253              		.loc 1 378 0
 254 001e 069B     		ldr	r3, [sp, #24]
 255 0020 6362     		str	r3, [r4, #36]
 379:FreeRTOS\src/timers.c **** 		traceTIMER_CREATE( pxNewTimer );
 256              		.loc 1 379 0
 257 0022 201D     		adds	r0, r4, #4
 258 0024 FFF7FEFF 		bl	vListInitialiseItem
 259              	.LVL29:
 260              	.L22:
 261 0028 BDE8F081 		pop	{r4, r5, r6, r7, r8, pc}
 262              		.cfi_endproc
 263              	.LFE7:
 264              		.size	prvInitialiseNewTimer, .-prvInitialiseNewTimer
 265              		.section	.text.xTimerCreateTimerTask,"ax",%progbits
 266              		.align	2
 267              		.global	xTimerCreateTimerTask
 268              		.thumb
 269              		.thumb_func
 270              		.type	xTimerCreateTimerTask, %function
 271              	xTimerCreateTimerTask:
 272              	.LFB5:
 227:FreeRTOS\src/timers.c **** BaseType_t xReturn = pdFAIL;
 273              		.loc 1 227 0
 274              		.cfi_startproc
 275              		@ args = 0, pretend = 0, frame = 0
 276              		@ frame_needed = 0, uses_anonymous_args = 0
 277 0000 00B5     		push	{lr}
 278              		.cfi_def_cfa_offset 4
 279              		.cfi_offset 14, -4
 280 0002 83B0     		sub	sp, sp, #12
 281              		.cfi_def_cfa_offset 16
 282              	.LVL30:
 234:FreeRTOS\src/timers.c **** 
 283              		.loc 1 234 0
 284 0004 FFF7FEFF 		bl	prvCheckForValidListAndQueue
 285              	.LVL31:
 236:FreeRTOS\src/timers.c **** 	{
 286              		.loc 1 236 0
 287 0008 094B     		ldr	r3, .L29
 288 000a 9B68     		ldr	r3, [r3, #8]
 289 000c 5BB1     		cbz	r3, .L27
 260:FreeRTOS\src/timers.c **** 									configTIMER_SERVICE_TASK_NAME,
 290              		.loc 1 260 0
 291 000e 094B     		ldr	r3, .L29+4
 292 0010 0193     		str	r3, [sp, #4]
ARM GAS  C:\Users\nicol\AppData\Local\Temp\ccYDRgtd.s 			page 23


 293 0012 1F23     		movs	r3, #31
 294 0014 0093     		str	r3, [sp]
 295 0016 0023     		movs	r3, #0
 296 0018 4FF48062 		mov	r2, #1024
 297 001c 0649     		ldr	r1, .L29+8
 298 001e 0748     		ldr	r0, .L29+12
 299 0020 FFF7FEFF 		bl	xTaskCreate
 300              	.LVL32:
 301 0024 00E0     		b	.L26
 302              	.LVL33:
 303              	.L27:
 228:FreeRTOS\src/timers.c **** 
 304              		.loc 1 228 0
 305 0026 0020     		movs	r0, #0
 306              	.LVL34:
 307              	.L26:
 276:FreeRTOS\src/timers.c **** /*-----------------------------------------------------------*/
 308              		.loc 1 276 0
 309 0028 03B0     		add	sp, sp, #12
 310              		.cfi_def_cfa_offset 4
 311              		@ sp needed
 312 002a 5DF804FB 		ldr	pc, [sp], #4
 313              	.L30:
 314 002e 00BF     		.align	2
 315              	.L29:
 316 0030 00000000 		.word	.LANCHOR0
 317 0034 34000000 		.word	.LANCHOR0+52
 318 0038 08000000 		.word	.LC1
 319 003c 00000000 		.word	prvTimerTask
 320              		.cfi_endproc
 321              	.LFE5:
 322              		.size	xTimerCreateTimerTask, .-xTimerCreateTimerTask
 323              		.section	.text.xTimerCreate,"ax",%progbits
 324              		.align	2
 325              		.global	xTimerCreate
 326              		.thumb
 327              		.thumb_func
 328              		.type	xTimerCreate, %function
 329              	xTimerCreate:
 330              	.LFB6:
 286:FreeRTOS\src/timers.c **** 	Timer_t *pxNewTimer;
 331              		.loc 1 286 0
 332              		.cfi_startproc
 333              		@ args = 4, pretend = 0, frame = 0
 334              		@ frame_needed = 0, uses_anonymous_args = 0
 335              	.LVL35:
 336 0000 2DE9F041 		push	{r4, r5, r6, r7, r8, lr}
 337              		.cfi_def_cfa_offset 24
 338              		.cfi_offset 4, -24
 339              		.cfi_offset 5, -20
 340              		.cfi_offset 6, -16
 341              		.cfi_offset 7, -12
 342              		.cfi_offset 8, -8
 343              		.cfi_offset 14, -4
 344 0004 82B0     		sub	sp, sp, #8
 345              		.cfi_def_cfa_offset 32
 346 0006 0546     		mov	r5, r0
ARM GAS  C:\Users\nicol\AppData\Local\Temp\ccYDRgtd.s 			page 24


 347 0008 0E46     		mov	r6, r1
 348 000a 1746     		mov	r7, r2
 349 000c 9846     		mov	r8, r3
 289:FreeRTOS\src/timers.c **** 
 350              		.loc 1 289 0
 351 000e 2820     		movs	r0, #40
 352              	.LVL36:
 353 0010 FFF7FEFF 		bl	pvPortMalloc
 354              	.LVL37:
 291:FreeRTOS\src/timers.c **** 		{
 355              		.loc 1 291 0
 356 0014 0446     		mov	r4, r0
 357 0016 40B1     		cbz	r0, .L32
 293:FreeRTOS\src/timers.c **** 
 358              		.loc 1 293 0
 359 0018 0190     		str	r0, [sp, #4]
 360 001a 089B     		ldr	r3, [sp, #32]
 361 001c 0093     		str	r3, [sp]
 362 001e 4346     		mov	r3, r8
 363 0020 3A46     		mov	r2, r7
 364 0022 3146     		mov	r1, r6
 365 0024 2846     		mov	r0, r5
 366              	.LVL38:
 367 0026 FFF7FEFF 		bl	prvInitialiseNewTimer
 368              	.LVL39:
 369              	.L32:
 306:FreeRTOS\src/timers.c **** 
 370              		.loc 1 306 0
 371 002a 2046     		mov	r0, r4
 372 002c 02B0     		add	sp, sp, #8
 373              		.cfi_def_cfa_offset 24
 374              		@ sp needed
 375 002e BDE8F081 		pop	{r4, r5, r6, r7, r8, pc}
 376              		.cfi_endproc
 377              	.LFE6:
 378              		.size	xTimerCreate, .-xTimerCreate
 379 0032 00BF     		.section	.text.xTimerGenericCommand,"ax",%progbits
 380              		.align	2
 381              		.global	xTimerGenericCommand
 382              		.thumb
 383              		.thumb_func
 384              		.type	xTimerGenericCommand, %function
 385              	xTimerGenericCommand:
 386              	.LFB8:
 386:FreeRTOS\src/timers.c **** BaseType_t xReturn = pdFAIL;
 387              		.loc 1 386 0
 388              		.cfi_startproc
 389              		@ args = 4, pretend = 0, frame = 16
 390              		@ frame_needed = 0, uses_anonymous_args = 0
 391              	.LVL40:
 392 0000 30B5     		push	{r4, r5, lr}
 393              		.cfi_def_cfa_offset 12
 394              		.cfi_offset 4, -12
 395              		.cfi_offset 5, -8
 396              		.cfi_offset 14, -4
 397 0002 85B0     		sub	sp, sp, #20
 398              		.cfi_def_cfa_offset 32
ARM GAS  C:\Users\nicol\AppData\Local\Temp\ccYDRgtd.s 			page 25


 399              	.LVL41:
 394:FreeRTOS\src/timers.c **** 	{
 400              		.loc 1 394 0
 401 0004 134C     		ldr	r4, .L40
 402 0006 A568     		ldr	r5, [r4, #8]
 403 0008 05B3     		cbz	r5, .L38
 404 000a 1C46     		mov	r4, r3
 397:FreeRTOS\src/timers.c **** 		xMessage.u.xTimerParameters.xMessageValue = xOptionalValue;
 405              		.loc 1 397 0
 406 000c 0191     		str	r1, [sp, #4]
 398:FreeRTOS\src/timers.c **** 		xMessage.u.xTimerParameters.pxTimer = xTimer;
 407              		.loc 1 398 0
 408 000e 0292     		str	r2, [sp, #8]
 399:FreeRTOS\src/timers.c **** 
 409              		.loc 1 399 0
 410 0010 0390     		str	r0, [sp, #12]
 401:FreeRTOS\src/timers.c **** 		{
 411              		.loc 1 401 0
 412 0012 0529     		cmp	r1, #5
 413 0014 13DC     		bgt	.L36
 403:FreeRTOS\src/timers.c **** 			{
 414              		.loc 1 403 0
 415 0016 FFF7FEFF 		bl	xTaskGetSchedulerState
 416              	.LVL42:
 417 001a 0228     		cmp	r0, #2
 418 001c 07D1     		bne	.L37
 405:FreeRTOS\src/timers.c **** 			}
 419              		.loc 1 405 0
 420 001e 0023     		movs	r3, #0
 421 0020 089A     		ldr	r2, [sp, #32]
 422 0022 01A9     		add	r1, sp, #4
 423 0024 0B48     		ldr	r0, .L40
 424 0026 8068     		ldr	r0, [r0, #8]
 425 0028 FFF7FEFF 		bl	xQueueGenericSend
 426              	.LVL43:
 427 002c 0FE0     		b	.L35
 428              	.LVL44:
 429              	.L37:
 409:FreeRTOS\src/timers.c **** 			}
 430              		.loc 1 409 0
 431 002e 0023     		movs	r3, #0
 432 0030 1A46     		mov	r2, r3
 433 0032 01A9     		add	r1, sp, #4
 434 0034 0748     		ldr	r0, .L40
 435 0036 8068     		ldr	r0, [r0, #8]
 436 0038 FFF7FEFF 		bl	xQueueGenericSend
 437              	.LVL45:
 438 003c 07E0     		b	.L35
 439              	.LVL46:
 440              	.L36:
 414:FreeRTOS\src/timers.c **** 		}
 441              		.loc 1 414 0
 442 003e 0023     		movs	r3, #0
 443              	.LVL47:
 444 0040 2246     		mov	r2, r4
 445              	.LVL48:
 446 0042 01A9     		add	r1, sp, #4
ARM GAS  C:\Users\nicol\AppData\Local\Temp\ccYDRgtd.s 			page 26


 447              	.LVL49:
 448 0044 2846     		mov	r0, r5
 449              	.LVL50:
 450 0046 FFF7FEFF 		bl	xQueueGenericSendFromISR
 451              	.LVL51:
 452 004a 00E0     		b	.L35
 453              	.LVL52:
 454              	.L38:
 387:FreeRTOS\src/timers.c **** DaemonTaskMessage_t xMessage;
 455              		.loc 1 387 0
 456 004c 0020     		movs	r0, #0
 457              	.LVL53:
 458              	.L35:
 425:FreeRTOS\src/timers.c **** /*-----------------------------------------------------------*/
 459              		.loc 1 425 0
 460 004e 05B0     		add	sp, sp, #20
 461              		.cfi_def_cfa_offset 12
 462              		@ sp needed
 463 0050 30BD     		pop	{r4, r5, pc}
 464              	.LVL54:
 465              	.L41:
 466 0052 00BF     		.align	2
 467              	.L40:
 468 0054 00000000 		.word	.LANCHOR0
 469              		.cfi_endproc
 470              	.LFE8:
 471              		.size	xTimerGenericCommand, .-xTimerGenericCommand
 472              		.section	.text.prvSwitchTimerLists,"ax",%progbits
 473              		.align	2
 474              		.thumb
 475              		.thumb_func
 476              		.type	prvSwitchTimerLists, %function
 477              	prvSwitchTimerLists:
 478              	.LFB20:
 840:FreeRTOS\src/timers.c **** TickType_t xNextExpireTime, xReloadTime;
 479              		.loc 1 840 0
 480              		.cfi_startproc
 481              		@ args = 0, pretend = 0, frame = 0
 482              		@ frame_needed = 0, uses_anonymous_args = 0
 483 0000 70B5     		push	{r4, r5, r6, lr}
 484              		.cfi_def_cfa_offset 16
 485              		.cfi_offset 4, -16
 486              		.cfi_offset 5, -12
 487              		.cfi_offset 6, -8
 488              		.cfi_offset 14, -4
 489 0002 82B0     		sub	sp, sp, #8
 490              		.cfi_def_cfa_offset 24
 850:FreeRTOS\src/timers.c **** 	{
 491              		.loc 1 850 0
 492 0004 1FE0     		b	.L44
 493              	.L47:
 852:FreeRTOS\src/timers.c **** 
 494              		.loc 1 852 0
 495 0006 DB68     		ldr	r3, [r3, #12]
 496 0008 1E68     		ldr	r6, [r3]
 497              	.LVL55:
 855:FreeRTOS\src/timers.c **** 		( void ) uxListRemove( &( pxTimer->xTimerListItem ) );
ARM GAS  C:\Users\nicol\AppData\Local\Temp\ccYDRgtd.s 			page 27


 498              		.loc 1 855 0
 499 000a DC68     		ldr	r4, [r3, #12]
 500              	.LVL56:
 856:FreeRTOS\src/timers.c **** 		traceTIMER_EXPIRED( pxTimer );
 501              		.loc 1 856 0
 502 000c 251D     		adds	r5, r4, #4
 503 000e 2846     		mov	r0, r5
 504 0010 FFF7FEFF 		bl	uxListRemove
 505              	.LVL57:
 862:FreeRTOS\src/timers.c **** 
 506              		.loc 1 862 0
 507 0014 636A     		ldr	r3, [r4, #36]
 508 0016 2046     		mov	r0, r4
 509 0018 9847     		blx	r3
 510              	.LVL58:
 864:FreeRTOS\src/timers.c **** 		{
 511              		.loc 1 864 0
 512 001a E369     		ldr	r3, [r4, #28]
 513 001c 012B     		cmp	r3, #1
 514 001e 12D1     		bne	.L44
 872:FreeRTOS\src/timers.c **** 			if( xReloadTime > xNextExpireTime )
 515              		.loc 1 872 0
 516 0020 A369     		ldr	r3, [r4, #24]
 517 0022 3344     		add	r3, r3, r6
 518              	.LVL59:
 873:FreeRTOS\src/timers.c **** 			{
 519              		.loc 1 873 0
 520 0024 9E42     		cmp	r6, r3
 521 0026 07D2     		bcs	.L45
 875:FreeRTOS\src/timers.c **** 				listSET_LIST_ITEM_OWNER( &( pxTimer->xTimerListItem ), pxTimer );
 522              		.loc 1 875 0
 523 0028 6360     		str	r3, [r4, #4]
 876:FreeRTOS\src/timers.c **** 				vListInsert( pxCurrentTimerList, &( pxTimer->xTimerListItem ) );
 524              		.loc 1 876 0
 525 002a 2461     		str	r4, [r4, #16]
 877:FreeRTOS\src/timers.c **** 			}
 526              		.loc 1 877 0
 527 002c 2946     		mov	r1, r5
 528 002e 0B4B     		ldr	r3, .L49
 529              	.LVL60:
 530 0030 1868     		ldr	r0, [r3]
 531 0032 FFF7FEFF 		bl	vListInsert
 532              	.LVL61:
 533 0036 06E0     		b	.L44
 534              	.LVL62:
 535              	.L45:
 881:FreeRTOS\src/timers.c **** 				configASSERT( xResult );
 536              		.loc 1 881 0
 537 0038 0021     		movs	r1, #0
 538 003a 0091     		str	r1, [sp]
 539 003c 0B46     		mov	r3, r1
 540              	.LVL63:
 541 003e 3246     		mov	r2, r6
 542 0040 2046     		mov	r0, r4
 543 0042 FFF7FEFF 		bl	xTimerGenericCommand
 544              	.LVL64:
 545              	.L44:
ARM GAS  C:\Users\nicol\AppData\Local\Temp\ccYDRgtd.s 			page 28


 850:FreeRTOS\src/timers.c **** 	{
 546              		.loc 1 850 0
 547 0046 054B     		ldr	r3, .L49
 548 0048 1B68     		ldr	r3, [r3]
 549 004a 1A68     		ldr	r2, [r3]
 550 004c 002A     		cmp	r2, #0
 551 004e DAD1     		bne	.L47
 552              	.LVL65:
 893:FreeRTOS\src/timers.c **** 	pxOverflowTimerList = pxTemp;
 553              		.loc 1 893 0
 554 0050 024A     		ldr	r2, .L49
 555 0052 5168     		ldr	r1, [r2, #4]
 556 0054 1160     		str	r1, [r2]
 894:FreeRTOS\src/timers.c **** }
 557              		.loc 1 894 0
 558 0056 5360     		str	r3, [r2, #4]
 895:FreeRTOS\src/timers.c **** /*-----------------------------------------------------------*/
 559              		.loc 1 895 0
 560 0058 02B0     		add	sp, sp, #8
 561              		.cfi_def_cfa_offset 16
 562              		@ sp needed
 563 005a 70BD     		pop	{r4, r5, r6, pc}
 564              	.L50:
 565              		.align	2
 566              	.L49:
 567 005c 00000000 		.word	.LANCHOR0
 568              		.cfi_endproc
 569              	.LFE20:
 570              		.size	prvSwitchTimerLists, .-prvSwitchTimerLists
 571              		.section	.text.prvSampleTimeNow,"ax",%progbits
 572              		.align	2
 573              		.thumb
 574              		.thumb_func
 575              		.type	prvSampleTimeNow, %function
 576              	prvSampleTimeNow:
 577              	.LFB17:
 629:FreeRTOS\src/timers.c **** TickType_t xTimeNow;
 578              		.loc 1 629 0
 579              		.cfi_startproc
 580              		@ args = 0, pretend = 0, frame = 0
 581              		@ frame_needed = 0, uses_anonymous_args = 0
 582              	.LVL66:
 583 0000 38B5     		push	{r3, r4, r5, lr}
 584              		.cfi_def_cfa_offset 16
 585              		.cfi_offset 3, -16
 586              		.cfi_offset 4, -12
 587              		.cfi_offset 5, -8
 588              		.cfi_offset 14, -4
 589 0002 0546     		mov	r5, r0
 633:FreeRTOS\src/timers.c **** 
 590              		.loc 1 633 0
 591 0004 FFF7FEFF 		bl	xTaskGetTickCount
 592              	.LVL67:
 593 0008 0446     		mov	r4, r0
 594              	.LVL68:
 635:FreeRTOS\src/timers.c **** 	{
 595              		.loc 1 635 0
ARM GAS  C:\Users\nicol\AppData\Local\Temp\ccYDRgtd.s 			page 29


 596 000a 074B     		ldr	r3, .L55
 597 000c 9B6B     		ldr	r3, [r3, #56]
 598 000e 9842     		cmp	r0, r3
 599 0010 04D2     		bcs	.L52
 637:FreeRTOS\src/timers.c **** 		*pxTimerListsWereSwitched = pdTRUE;
 600              		.loc 1 637 0
 601 0012 FFF7FEFF 		bl	prvSwitchTimerLists
 602              	.LVL69:
 638:FreeRTOS\src/timers.c **** 	}
 603              		.loc 1 638 0
 604 0016 0123     		movs	r3, #1
 605 0018 2B60     		str	r3, [r5]
 606 001a 01E0     		b	.L53
 607              	.LVL70:
 608              	.L52:
 642:FreeRTOS\src/timers.c **** 	}
 609              		.loc 1 642 0
 610 001c 0023     		movs	r3, #0
 611 001e 2B60     		str	r3, [r5]
 612              	.LVL71:
 613              	.L53:
 645:FreeRTOS\src/timers.c **** 
 614              		.loc 1 645 0
 615 0020 014B     		ldr	r3, .L55
 616 0022 9C63     		str	r4, [r3, #56]
 648:FreeRTOS\src/timers.c **** /*-----------------------------------------------------------*/
 617              		.loc 1 648 0
 618 0024 2046     		mov	r0, r4
 619 0026 38BD     		pop	{r3, r4, r5, pc}
 620              	.LVL72:
 621              	.L56:
 622              		.align	2
 623              	.L55:
 624 0028 00000000 		.word	.LANCHOR0
 625              		.cfi_endproc
 626              	.LFE17:
 627              		.size	prvSampleTimeNow, .-prvSampleTimeNow
 628              		.section	.text.prvProcessExpiredTimer,"ax",%progbits
 629              		.align	2
 630              		.thumb
 631              		.thumb_func
 632              		.type	prvProcessExpiredTimer, %function
 633              	prvProcessExpiredTimer:
 634              	.LFB13:
 467:FreeRTOS\src/timers.c **** BaseType_t xResult;
 635              		.loc 1 467 0
 636              		.cfi_startproc
 637              		@ args = 0, pretend = 0, frame = 0
 638              		@ frame_needed = 0, uses_anonymous_args = 0
 639              	.LVL73:
 640 0000 70B5     		push	{r4, r5, r6, lr}
 641              		.cfi_def_cfa_offset 16
 642              		.cfi_offset 4, -16
 643              		.cfi_offset 5, -12
 644              		.cfi_offset 6, -8
 645              		.cfi_offset 14, -4
 646 0002 82B0     		sub	sp, sp, #8
ARM GAS  C:\Users\nicol\AppData\Local\Temp\ccYDRgtd.s 			page 30


 647              		.cfi_def_cfa_offset 24
 648 0004 0546     		mov	r5, r0
 649 0006 0E46     		mov	r6, r1
 469:FreeRTOS\src/timers.c **** 
 650              		.loc 1 469 0
 651 0008 0E4B     		ldr	r3, .L60
 652 000a 1B68     		ldr	r3, [r3]
 653 000c DB68     		ldr	r3, [r3, #12]
 654 000e DC68     		ldr	r4, [r3, #12]
 655              	.LVL74:
 473:FreeRTOS\src/timers.c **** 	traceTIMER_EXPIRED( pxTimer );
 656              		.loc 1 473 0
 657 0010 201D     		adds	r0, r4, #4
 658              	.LVL75:
 659 0012 FFF7FEFF 		bl	uxListRemove
 660              	.LVL76:
 478:FreeRTOS\src/timers.c **** 	{
 661              		.loc 1 478 0
 662 0016 E369     		ldr	r3, [r4, #28]
 663 0018 012B     		cmp	r3, #1
 664 001a 0ED1     		bne	.L58
 483:FreeRTOS\src/timers.c **** 		{
 665              		.loc 1 483 0
 666 001c A169     		ldr	r1, [r4, #24]
 667 001e 2B46     		mov	r3, r5
 668 0020 3246     		mov	r2, r6
 669 0022 2944     		add	r1, r1, r5
 670 0024 2046     		mov	r0, r4
 671 0026 FFF7FEFF 		bl	prvInsertTimerInActiveList
 672              	.LVL77:
 673 002a 30B1     		cbz	r0, .L58
 487:FreeRTOS\src/timers.c **** 			configASSERT( xResult );
 674              		.loc 1 487 0
 675 002c 0021     		movs	r1, #0
 676 002e 0091     		str	r1, [sp]
 677 0030 0B46     		mov	r3, r1
 678 0032 2A46     		mov	r2, r5
 679 0034 2046     		mov	r0, r4
 680 0036 FFF7FEFF 		bl	xTimerGenericCommand
 681              	.LVL78:
 682              	.L58:
 502:FreeRTOS\src/timers.c **** }
 683              		.loc 1 502 0
 684 003a 636A     		ldr	r3, [r4, #36]
 685 003c 2046     		mov	r0, r4
 686 003e 9847     		blx	r3
 687              	.LVL79:
 503:FreeRTOS\src/timers.c **** /*-----------------------------------------------------------*/
 688              		.loc 1 503 0
 689 0040 02B0     		add	sp, sp, #8
 690              		.cfi_def_cfa_offset 16
 691              		@ sp needed
 692 0042 70BD     		pop	{r4, r5, r6, pc}
 693              	.LVL80:
 694              	.L61:
 695              		.align	2
 696              	.L60:
ARM GAS  C:\Users\nicol\AppData\Local\Temp\ccYDRgtd.s 			page 31


 697 0044 00000000 		.word	.LANCHOR0
 698              		.cfi_endproc
 699              	.LFE13:
 700              		.size	prvProcessExpiredTimer, .-prvProcessExpiredTimer
 701              		.section	.text.prvProcessTimerOrBlockTask,"ax",%progbits
 702              		.align	2
 703              		.thumb
 704              		.thumb_func
 705              		.type	prvProcessTimerOrBlockTask, %function
 706              	prvProcessTimerOrBlockTask:
 707              	.LFB15:
 543:FreeRTOS\src/timers.c **** TickType_t xTimeNow;
 708              		.loc 1 543 0
 709              		.cfi_startproc
 710              		@ args = 0, pretend = 0, frame = 8
 711              		@ frame_needed = 0, uses_anonymous_args = 0
 712              	.LVL81:
 713 0000 70B5     		push	{r4, r5, r6, lr}
 714              		.cfi_def_cfa_offset 16
 715              		.cfi_offset 4, -16
 716              		.cfi_offset 5, -12
 717              		.cfi_offset 6, -8
 718              		.cfi_offset 14, -4
 719 0002 82B0     		sub	sp, sp, #8
 720              		.cfi_def_cfa_offset 24
 721 0004 0646     		mov	r6, r0
 722 0006 0C46     		mov	r4, r1
 547:FreeRTOS\src/timers.c **** 	{
 723              		.loc 1 547 0
 724 0008 FFF7FEFF 		bl	vTaskSuspendAll
 725              	.LVL82:
 554:FreeRTOS\src/timers.c **** 		if( xTimerListsWereSwitched == pdFALSE )
 726              		.loc 1 554 0
 727 000c 01A8     		add	r0, sp, #4
 728 000e FFF7FEFF 		bl	prvSampleTimeNow
 729              	.LVL83:
 555:FreeRTOS\src/timers.c **** 		{
 730              		.loc 1 555 0
 731 0012 019B     		ldr	r3, [sp, #4]
 732 0014 23BB     		cbnz	r3, .L63
 733 0016 0546     		mov	r5, r0
 558:FreeRTOS\src/timers.c **** 			{
 734              		.loc 1 558 0
 735 0018 44B9     		cbnz	r4, .L64
 558:FreeRTOS\src/timers.c **** 			{
 736              		.loc 1 558 0 is_stmt 0 discriminator 1
 737 001a B042     		cmp	r0, r6
 738 001c 06D3     		bcc	.L64
 560:FreeRTOS\src/timers.c **** 				prvProcessExpiredTimer( xNextExpireTime, xTimeNow );
 739              		.loc 1 560 0 is_stmt 1
 740 001e FFF7FEFF 		bl	xTaskResumeAll
 741              	.LVL84:
 561:FreeRTOS\src/timers.c **** 			}
 742              		.loc 1 561 0
 743 0022 2946     		mov	r1, r5
 744 0024 3046     		mov	r0, r6
 745 0026 FFF7FEFF 		bl	prvProcessExpiredTimer
ARM GAS  C:\Users\nicol\AppData\Local\Temp\ccYDRgtd.s 			page 32


 746              	.LVL85:
 747 002a 1BE0     		b	.L62
 748              	.LVL86:
 749              	.L64:
 571:FreeRTOS\src/timers.c **** 				{
 750              		.loc 1 571 0
 751 002c 34B1     		cbz	r4, .L66
 575:FreeRTOS\src/timers.c **** 				}
 752              		.loc 1 575 0
 753 002e 0E4B     		ldr	r3, .L69
 754 0030 5B68     		ldr	r3, [r3, #4]
 755 0032 1B68     		ldr	r3, [r3]
 756 0034 0BB9     		cbnz	r3, .L67
 757 0036 0124     		movs	r4, #1
 758              	.LVL87:
 759 0038 00E0     		b	.L66
 760              	.LVL88:
 761              	.L67:
 762 003a 0024     		movs	r4, #0
 763              	.LVL89:
 764              	.L66:
 578:FreeRTOS\src/timers.c **** 
 765              		.loc 1 578 0
 766 003c 2246     		mov	r2, r4
 767 003e 711B     		subs	r1, r6, r5
 768 0040 094B     		ldr	r3, .L69
 769 0042 9868     		ldr	r0, [r3, #8]
 770              	.LVL90:
 771 0044 FFF7FEFF 		bl	vQueueWaitForMessageRestricted
 772              	.LVL91:
 580:FreeRTOS\src/timers.c **** 				{
 773              		.loc 1 580 0
 774 0048 FFF7FEFF 		bl	xTaskResumeAll
 775              	.LVL92:
 776 004c 50B9     		cbnz	r0, .L62
 586:FreeRTOS\src/timers.c **** 				}
 777              		.loc 1 586 0
 778 004e 4FF08052 		mov	r2, #268435456
 779 0052 064B     		ldr	r3, .L69+4
 780 0054 1A60     		str	r2, [r3]
 781              		.syntax unified
 782              	@ 586 "FreeRTOS\src\timers.c" 1
 783 0056 BFF34F8F 		dsb
 784              	@ 0 "" 2
 785              	@ 586 "FreeRTOS\src\timers.c" 1
 786 005a BFF36F8F 		isb
 787              	@ 0 "" 2
 788              		.thumb
 789              		.syntax unified
 790 005e 01E0     		b	.L62
 791              	.LVL93:
 792              	.L63:
 596:FreeRTOS\src/timers.c **** 		}
 793              		.loc 1 596 0
 794 0060 FFF7FEFF 		bl	xTaskResumeAll
 795              	.LVL94:
 796              	.L62:
ARM GAS  C:\Users\nicol\AppData\Local\Temp\ccYDRgtd.s 			page 33


 599:FreeRTOS\src/timers.c **** /*-----------------------------------------------------------*/
 797              		.loc 1 599 0
 798 0064 02B0     		add	sp, sp, #8
 799              		.cfi_def_cfa_offset 16
 800              		@ sp needed
 801 0066 70BD     		pop	{r4, r5, r6, pc}
 802              	.LVL95:
 803              	.L70:
 804              		.align	2
 805              	.L69:
 806 0068 00000000 		.word	.LANCHOR0
 807 006c 04ED00E0 		.word	-536810236
 808              		.cfi_endproc
 809              	.LFE15:
 810              		.size	prvProcessTimerOrBlockTask, .-prvProcessTimerOrBlockTask
 811              		.section	.text.prvProcessReceivedCommands,"ax",%progbits
 812              		.align	2
 813              		.thumb
 814              		.thumb_func
 815              		.type	prvProcessReceivedCommands, %function
 816              	prvProcessReceivedCommands:
 817              	.LFB19:
 693:FreeRTOS\src/timers.c **** DaemonTaskMessage_t xMessage;
 818              		.loc 1 693 0
 819              		.cfi_startproc
 820              		@ args = 0, pretend = 0, frame = 16
 821              		@ frame_needed = 0, uses_anonymous_args = 0
 822 0000 30B5     		push	{r4, r5, lr}
 823              		.cfi_def_cfa_offset 12
 824              		.cfi_offset 4, -12
 825              		.cfi_offset 5, -8
 826              		.cfi_offset 14, -4
 827 0002 87B0     		sub	sp, sp, #28
 828              		.cfi_def_cfa_offset 40
 699:FreeRTOS\src/timers.c **** 	{
 829              		.loc 1 699 0
 830 0004 3AE0     		b	.L73
 831              	.L81:
 725:FreeRTOS\src/timers.c **** 		{
 832              		.loc 1 725 0
 833 0006 039B     		ldr	r3, [sp, #12]
 834 0008 002B     		cmp	r3, #0
 835 000a 37DB     		blt	.L73
 729:FreeRTOS\src/timers.c **** 
 836              		.loc 1 729 0
 837 000c 059C     		ldr	r4, [sp, #20]
 838              	.LVL96:
 731:FreeRTOS\src/timers.c **** 			{
 839              		.loc 1 731 0
 840 000e 6369     		ldr	r3, [r4, #20]
 841 0010 13B1     		cbz	r3, .L74
 734:FreeRTOS\src/timers.c **** 			}
 842              		.loc 1 734 0
 843 0012 201D     		adds	r0, r4, #4
 844 0014 FFF7FEFF 		bl	uxListRemove
 845              	.LVL97:
 846              	.L74:
ARM GAS  C:\Users\nicol\AppData\Local\Temp\ccYDRgtd.s 			page 34


 749:FreeRTOS\src/timers.c **** 
 847              		.loc 1 749 0
 848 0018 02A8     		add	r0, sp, #8
 849 001a FFF7FEFF 		bl	prvSampleTimeNow
 850              	.LVL98:
 751:FreeRTOS\src/timers.c **** 			{
 851              		.loc 1 751 0
 852 001e 039B     		ldr	r3, [sp, #12]
 853 0020 092B     		cmp	r3, #9
 854 0022 2BD8     		bhi	.L73
 855 0024 DFE803F0 		tbb	[pc, r3]
 856              	.L77:
 857 0028 05       		.byte	(.L76-.L77)/2
 858 0029 05       		.byte	(.L76-.L77)/2
 859 002a 05       		.byte	(.L76-.L77)/2
 860 002b 2A       		.byte	(.L73-.L77)/2
 861 002c 1E       		.byte	(.L78-.L77)/2
 862 002d 27       		.byte	(.L79-.L77)/2
 863 002e 05       		.byte	(.L76-.L77)/2
 864 002f 05       		.byte	(.L76-.L77)/2
 865 0030 2A       		.byte	(.L73-.L77)/2
 866 0031 1E       		.byte	(.L78-.L77)/2
 867              		.p2align 1
 868              	.L76:
 759:FreeRTOS\src/timers.c **** 					{
 869              		.loc 1 759 0
 870 0032 0499     		ldr	r1, [sp, #16]
 871 0034 A569     		ldr	r5, [r4, #24]
 872 0036 0B46     		mov	r3, r1
 873 0038 0246     		mov	r2, r0
 874 003a 2944     		add	r1, r1, r5
 875 003c 2046     		mov	r0, r4
 876              	.LVL99:
 877 003e FFF7FEFF 		bl	prvInsertTimerInActiveList
 878              	.LVL100:
 879 0042 D8B1     		cbz	r0, .L73
 763:FreeRTOS\src/timers.c **** 						traceTIMER_EXPIRED( pxTimer );
 880              		.loc 1 763 0
 881 0044 636A     		ldr	r3, [r4, #36]
 882 0046 2046     		mov	r0, r4
 883 0048 9847     		blx	r3
 884              	.LVL101:
 766:FreeRTOS\src/timers.c **** 						{
 885              		.loc 1 766 0
 886 004a E369     		ldr	r3, [r4, #28]
 887 004c 012B     		cmp	r3, #1
 888 004e 15D1     		bne	.L73
 768:FreeRTOS\src/timers.c **** 							configASSERT( xResult );
 889              		.loc 1 768 0
 890 0050 A269     		ldr	r2, [r4, #24]
 891 0052 0021     		movs	r1, #0
 892 0054 0091     		str	r1, [sp]
 893 0056 0B46     		mov	r3, r1
 894 0058 0498     		ldr	r0, [sp, #16]
 895 005a 0244     		add	r2, r2, r0
 896 005c 2046     		mov	r0, r4
 897 005e FFF7FEFF 		bl	xTimerGenericCommand
ARM GAS  C:\Users\nicol\AppData\Local\Temp\ccYDRgtd.s 			page 35


 898              	.LVL102:
 899 0062 0BE0     		b	.L73
 900              	.LVL103:
 901              	.L78:
 791:FreeRTOS\src/timers.c **** 					configASSERT( ( pxTimer->xTimerPeriodInTicks > 0 ) );
 902              		.loc 1 791 0
 903 0064 0499     		ldr	r1, [sp, #16]
 904 0066 A161     		str	r1, [r4, #24]
 800:FreeRTOS\src/timers.c **** 					break;
 905              		.loc 1 800 0
 906 0068 0346     		mov	r3, r0
 907 006a 0246     		mov	r2, r0
 908 006c 0144     		add	r1, r1, r0
 909 006e 2046     		mov	r0, r4
 910              	.LVL104:
 911 0070 FFF7FEFF 		bl	prvInsertTimerInActiveList
 912              	.LVL105:
 801:FreeRTOS\src/timers.c **** 
 913              		.loc 1 801 0
 914 0074 02E0     		b	.L73
 915              	.LVL106:
 916              	.L79:
 811:FreeRTOS\src/timers.c **** 					}
 917              		.loc 1 811 0
 918 0076 2046     		mov	r0, r4
 919              	.LVL107:
 920 0078 FFF7FEFF 		bl	vPortFree
 921              	.LVL108:
 922              	.L73:
 699:FreeRTOS\src/timers.c **** 	{
 923              		.loc 1 699 0
 924 007c 0022     		movs	r2, #0
 925 007e 03A9     		add	r1, sp, #12
 926 0080 034B     		ldr	r3, .L83
 927 0082 9868     		ldr	r0, [r3, #8]
 928 0084 FFF7FEFF 		bl	xQueueReceive
 929              	.LVL109:
 930 0088 0028     		cmp	r0, #0
 931 008a BCD1     		bne	.L81
 836:FreeRTOS\src/timers.c **** /*-----------------------------------------------------------*/
 932              		.loc 1 836 0
 933 008c 07B0     		add	sp, sp, #28
 934              		.cfi_def_cfa_offset 12
 935              		@ sp needed
 936 008e 30BD     		pop	{r4, r5, pc}
 937              	.L84:
 938              		.align	2
 939              	.L83:
 940 0090 00000000 		.word	.LANCHOR0
 941              		.cfi_endproc
 942              	.LFE19:
 943              		.size	prvProcessReceivedCommands, .-prvProcessReceivedCommands
 944              		.section	.text.prvTimerTask,"ax",%progbits
 945              		.align	2
 946              		.thumb
 947              		.thumb_func
 948              		.type	prvTimerTask, %function
ARM GAS  C:\Users\nicol\AppData\Local\Temp\ccYDRgtd.s 			page 36


 949              	prvTimerTask:
 950              	.LFB14:
 507:FreeRTOS\src/timers.c **** TickType_t xNextExpireTime;
 951              		.loc 1 507 0
 952              		.cfi_startproc
 953              		@ args = 0, pretend = 0, frame = 8
 954              		@ frame_needed = 0, uses_anonymous_args = 0
 955              	.LVL110:
 956 0000 00B5     		push	{lr}
 957              		.cfi_def_cfa_offset 4
 958              		.cfi_offset 14, -4
 959 0002 83B0     		sub	sp, sp, #12
 960              		.cfi_def_cfa_offset 16
 961              	.LVL111:
 962              	.L86:
 530:FreeRTOS\src/timers.c **** 
 963              		.loc 1 530 0 discriminator 1
 964 0004 01A8     		add	r0, sp, #4
 965 0006 FFF7FEFF 		bl	prvGetNextExpireTime
 966              	.LVL112:
 534:FreeRTOS\src/timers.c **** 
 967              		.loc 1 534 0 discriminator 1
 968 000a 0199     		ldr	r1, [sp, #4]
 969 000c FFF7FEFF 		bl	prvProcessTimerOrBlockTask
 970              	.LVL113:
 537:FreeRTOS\src/timers.c **** 	}
 971              		.loc 1 537 0 discriminator 1
 972 0010 FFF7FEFF 		bl	prvProcessReceivedCommands
 973              	.LVL114:
 974 0014 F6E7     		b	.L86
 975              		.cfi_endproc
 976              	.LFE14:
 977              		.size	prvTimerTask, .-prvTimerTask
 978 0016 00BF     		.section	.text.xTimerGetTimerDaemonTaskHandle,"ax",%progbits
 979              		.align	2
 980              		.global	xTimerGetTimerDaemonTaskHandle
 981              		.thumb
 982              		.thumb_func
 983              		.type	xTimerGetTimerDaemonTaskHandle, %function
 984              	xTimerGetTimerDaemonTaskHandle:
 985              	.LFB9:
 429:FreeRTOS\src/timers.c **** 	/* If xTimerGetTimerDaemonTaskHandle() is called before the scheduler has been
 986              		.loc 1 429 0
 987              		.cfi_startproc
 988              		@ args = 0, pretend = 0, frame = 0
 989              		@ frame_needed = 0, uses_anonymous_args = 0
 990              		@ link register save eliminated.
 434:FreeRTOS\src/timers.c **** /*-----------------------------------------------------------*/
 991              		.loc 1 434 0
 992 0000 014B     		ldr	r3, .L89
 993 0002 586B     		ldr	r0, [r3, #52]
 994 0004 7047     		bx	lr
 995              	.L90:
 996 0006 00BF     		.align	2
 997              	.L89:
 998 0008 00000000 		.word	.LANCHOR0
 999              		.cfi_endproc
ARM GAS  C:\Users\nicol\AppData\Local\Temp\ccYDRgtd.s 			page 37


 1000              	.LFE9:
 1001              		.size	xTimerGetTimerDaemonTaskHandle, .-xTimerGetTimerDaemonTaskHandle
 1002              		.section	.text.xTimerGetPeriod,"ax",%progbits
 1003              		.align	2
 1004              		.global	xTimerGetPeriod
 1005              		.thumb
 1006              		.thumb_func
 1007              		.type	xTimerGetPeriod, %function
 1008              	xTimerGetPeriod:
 1009              	.LFB10:
 438:FreeRTOS\src/timers.c **** Timer_t *pxTimer = xTimer;
 1010              		.loc 1 438 0
 1011              		.cfi_startproc
 1012              		@ args = 0, pretend = 0, frame = 0
 1013              		@ frame_needed = 0, uses_anonymous_args = 0
 1014              		@ link register save eliminated.
 1015              	.LVL115:
 443:FreeRTOS\src/timers.c **** /*-----------------------------------------------------------*/
 1016              		.loc 1 443 0
 1017 0000 8069     		ldr	r0, [r0, #24]
 1018              	.LVL116:
 1019 0002 7047     		bx	lr
 1020              		.cfi_endproc
 1021              	.LFE10:
 1022              		.size	xTimerGetPeriod, .-xTimerGetPeriod
 1023              		.section	.text.xTimerGetExpiryTime,"ax",%progbits
 1024              		.align	2
 1025              		.global	xTimerGetExpiryTime
 1026              		.thumb
 1027              		.thumb_func
 1028              		.type	xTimerGetExpiryTime, %function
 1029              	xTimerGetExpiryTime:
 1030              	.LFB11:
 447:FreeRTOS\src/timers.c **** Timer_t * pxTimer =  xTimer;
 1031              		.loc 1 447 0
 1032              		.cfi_startproc
 1033              		@ args = 0, pretend = 0, frame = 0
 1034              		@ frame_needed = 0, uses_anonymous_args = 0
 1035              		@ link register save eliminated.
 1036              	.LVL117:
 454:FreeRTOS\src/timers.c **** /*-----------------------------------------------------------*/
 1037              		.loc 1 454 0
 1038 0000 4068     		ldr	r0, [r0, #4]
 1039              	.LVL118:
 1040 0002 7047     		bx	lr
 1041              		.cfi_endproc
 1042              	.LFE11:
 1043              		.size	xTimerGetExpiryTime, .-xTimerGetExpiryTime
 1044              		.section	.text.pcTimerGetName,"ax",%progbits
 1045              		.align	2
 1046              		.global	pcTimerGetName
 1047              		.thumb
 1048              		.thumb_func
 1049              		.type	pcTimerGetName, %function
 1050              	pcTimerGetName:
 1051              	.LFB12:
 458:FreeRTOS\src/timers.c **** Timer_t *pxTimer = xTimer;
ARM GAS  C:\Users\nicol\AppData\Local\Temp\ccYDRgtd.s 			page 38


 1052              		.loc 1 458 0
 1053              		.cfi_startproc
 1054              		@ args = 0, pretend = 0, frame = 0
 1055              		@ frame_needed = 0, uses_anonymous_args = 0
 1056              		@ link register save eliminated.
 1057              	.LVL119:
 463:FreeRTOS\src/timers.c **** /*-----------------------------------------------------------*/
 1058              		.loc 1 463 0
 1059 0000 0068     		ldr	r0, [r0]
 1060              	.LVL120:
 1061 0002 7047     		bx	lr
 1062              		.cfi_endproc
 1063              	.LFE12:
 1064              		.size	pcTimerGetName, .-pcTimerGetName
 1065              		.section	.text.xTimerIsTimerActive,"ax",%progbits
 1066              		.align	2
 1067              		.global	xTimerIsTimerActive
 1068              		.thumb
 1069              		.thumb_func
 1070              		.type	xTimerIsTimerActive, %function
 1071              	xTimerIsTimerActive:
 1072              	.LFB22:
 946:FreeRTOS\src/timers.c **** }
 947:FreeRTOS\src/timers.c **** /*-----------------------------------------------------------*/
 948:FreeRTOS\src/timers.c **** 
 949:FreeRTOS\src/timers.c **** BaseType_t xTimerIsTimerActive( TimerHandle_t xTimer )
 950:FreeRTOS\src/timers.c **** {
 1073              		.loc 1 950 0
 1074              		.cfi_startproc
 1075              		@ args = 0, pretend = 0, frame = 0
 1076              		@ frame_needed = 0, uses_anonymous_args = 0
 1077              	.LVL121:
 1078 0000 10B5     		push	{r4, lr}
 1079              		.cfi_def_cfa_offset 8
 1080              		.cfi_offset 4, -8
 1081              		.cfi_offset 14, -4
 1082 0002 0446     		mov	r4, r0
 1083              	.LVL122:
 951:FreeRTOS\src/timers.c **** BaseType_t xTimerIsInActiveList;
 952:FreeRTOS\src/timers.c **** Timer_t *pxTimer = xTimer;
 953:FreeRTOS\src/timers.c **** 
 954:FreeRTOS\src/timers.c **** 	configASSERT( xTimer );
 955:FreeRTOS\src/timers.c **** 
 956:FreeRTOS\src/timers.c **** 	/* Is the timer in the list of active timers? */
 957:FreeRTOS\src/timers.c **** 	taskENTER_CRITICAL();
 1084              		.loc 1 957 0
 1085 0004 FFF7FEFF 		bl	vPortEnterCritical
 1086              	.LVL123:
 958:FreeRTOS\src/timers.c **** 	{
 959:FreeRTOS\src/timers.c **** 		/* Checking to see if it is in the NULL list in effect checks to see if
 960:FreeRTOS\src/timers.c **** 		it is referenced from either the current or the overflow timer lists in
 961:FreeRTOS\src/timers.c **** 		one go, but the logic has to be reversed, hence the '!'. */
 962:FreeRTOS\src/timers.c **** 		if( listIS_CONTAINED_WITHIN( NULL, &( pxTimer->xTimerListItem ) ) == pdTRUE )
 1087              		.loc 1 962 0
 1088 0008 6369     		ldr	r3, [r4, #20]
 1089 000a 0BB9     		cbnz	r3, .L96
 963:FreeRTOS\src/timers.c **** 		{
ARM GAS  C:\Users\nicol\AppData\Local\Temp\ccYDRgtd.s 			page 39


 964:FreeRTOS\src/timers.c **** 			xTimerIsInActiveList = pdFALSE;
 1090              		.loc 1 964 0
 1091 000c 0024     		movs	r4, #0
 1092              	.LVL124:
 1093 000e 00E0     		b	.L95
 1094              	.LVL125:
 1095              	.L96:
 965:FreeRTOS\src/timers.c **** 		}
 966:FreeRTOS\src/timers.c **** 		else
 967:FreeRTOS\src/timers.c **** 		{
 968:FreeRTOS\src/timers.c **** 			xTimerIsInActiveList = pdTRUE;
 1096              		.loc 1 968 0
 1097 0010 0124     		movs	r4, #1
 1098              	.LVL126:
 1099              	.L95:
 969:FreeRTOS\src/timers.c **** 		}
 970:FreeRTOS\src/timers.c **** 	}
 971:FreeRTOS\src/timers.c **** 	taskEXIT_CRITICAL();
 1100              		.loc 1 971 0
 1101 0012 FFF7FEFF 		bl	vPortExitCritical
 1102              	.LVL127:
 972:FreeRTOS\src/timers.c **** 
 973:FreeRTOS\src/timers.c **** 	return xTimerIsInActiveList;
 974:FreeRTOS\src/timers.c **** } /*lint !e818 Can't be pointer to const due to the typedef. */
 1103              		.loc 1 974 0
 1104 0016 2046     		mov	r0, r4
 1105 0018 10BD     		pop	{r4, pc}
 1106              		.cfi_endproc
 1107              	.LFE22:
 1108              		.size	xTimerIsTimerActive, .-xTimerIsTimerActive
 1109 001a 00BF     		.section	.text.pvTimerGetTimerID,"ax",%progbits
 1110              		.align	2
 1111              		.global	pvTimerGetTimerID
 1112              		.thumb
 1113              		.thumb_func
 1114              		.type	pvTimerGetTimerID, %function
 1115              	pvTimerGetTimerID:
 1116              	.LFB23:
 975:FreeRTOS\src/timers.c **** /*-----------------------------------------------------------*/
 976:FreeRTOS\src/timers.c **** 
 977:FreeRTOS\src/timers.c **** void *pvTimerGetTimerID( const TimerHandle_t xTimer )
 978:FreeRTOS\src/timers.c **** {
 1117              		.loc 1 978 0
 1118              		.cfi_startproc
 1119              		@ args = 0, pretend = 0, frame = 0
 1120              		@ frame_needed = 0, uses_anonymous_args = 0
 1121              	.LVL128:
 1122 0000 10B5     		push	{r4, lr}
 1123              		.cfi_def_cfa_offset 8
 1124              		.cfi_offset 4, -8
 1125              		.cfi_offset 14, -4
 1126 0002 0446     		mov	r4, r0
 1127              	.LVL129:
 979:FreeRTOS\src/timers.c **** Timer_t * const pxTimer = xTimer;
 980:FreeRTOS\src/timers.c **** void *pvReturn;
 981:FreeRTOS\src/timers.c **** 
 982:FreeRTOS\src/timers.c **** 	configASSERT( xTimer );
ARM GAS  C:\Users\nicol\AppData\Local\Temp\ccYDRgtd.s 			page 40


 983:FreeRTOS\src/timers.c **** 
 984:FreeRTOS\src/timers.c **** 	taskENTER_CRITICAL();
 1128              		.loc 1 984 0
 1129 0004 FFF7FEFF 		bl	vPortEnterCritical
 1130              	.LVL130:
 985:FreeRTOS\src/timers.c **** 	{
 986:FreeRTOS\src/timers.c **** 		pvReturn = pxTimer->pvTimerID;
 1131              		.loc 1 986 0
 1132 0008 246A     		ldr	r4, [r4, #32]
 1133              	.LVL131:
 987:FreeRTOS\src/timers.c **** 	}
 988:FreeRTOS\src/timers.c **** 	taskEXIT_CRITICAL();
 1134              		.loc 1 988 0
 1135 000a FFF7FEFF 		bl	vPortExitCritical
 1136              	.LVL132:
 989:FreeRTOS\src/timers.c **** 
 990:FreeRTOS\src/timers.c **** 	return pvReturn;
 991:FreeRTOS\src/timers.c **** }
 1137              		.loc 1 991 0
 1138 000e 2046     		mov	r0, r4
 1139 0010 10BD     		pop	{r4, pc}
 1140              		.cfi_endproc
 1141              	.LFE23:
 1142              		.size	pvTimerGetTimerID, .-pvTimerGetTimerID
 1143 0012 00BF     		.section	.text.vTimerSetTimerID,"ax",%progbits
 1144              		.align	2
 1145              		.global	vTimerSetTimerID
 1146              		.thumb
 1147              		.thumb_func
 1148              		.type	vTimerSetTimerID, %function
 1149              	vTimerSetTimerID:
 1150              	.LFB24:
 992:FreeRTOS\src/timers.c **** /*-----------------------------------------------------------*/
 993:FreeRTOS\src/timers.c **** 
 994:FreeRTOS\src/timers.c **** void vTimerSetTimerID( TimerHandle_t xTimer, void *pvNewID )
 995:FreeRTOS\src/timers.c **** {
 1151              		.loc 1 995 0
 1152              		.cfi_startproc
 1153              		@ args = 0, pretend = 0, frame = 0
 1154              		@ frame_needed = 0, uses_anonymous_args = 0
 1155              	.LVL133:
 1156 0000 38B5     		push	{r3, r4, r5, lr}
 1157              		.cfi_def_cfa_offset 16
 1158              		.cfi_offset 3, -16
 1159              		.cfi_offset 4, -12
 1160              		.cfi_offset 5, -8
 1161              		.cfi_offset 14, -4
 1162 0002 0446     		mov	r4, r0
 1163 0004 0D46     		mov	r5, r1
 1164              	.LVL134:
 996:FreeRTOS\src/timers.c **** Timer_t * const pxTimer = xTimer;
 997:FreeRTOS\src/timers.c **** 
 998:FreeRTOS\src/timers.c **** 	configASSERT( xTimer );
 999:FreeRTOS\src/timers.c **** 
1000:FreeRTOS\src/timers.c **** 	taskENTER_CRITICAL();
 1165              		.loc 1 1000 0
 1166 0006 FFF7FEFF 		bl	vPortEnterCritical
ARM GAS  C:\Users\nicol\AppData\Local\Temp\ccYDRgtd.s 			page 41


 1167              	.LVL135:
1001:FreeRTOS\src/timers.c **** 	{
1002:FreeRTOS\src/timers.c **** 		pxTimer->pvTimerID = pvNewID;
 1168              		.loc 1 1002 0
 1169 000a 2562     		str	r5, [r4, #32]
1003:FreeRTOS\src/timers.c **** 	}
1004:FreeRTOS\src/timers.c **** 	taskEXIT_CRITICAL();
 1170              		.loc 1 1004 0
 1171 000c FFF7FEFF 		bl	vPortExitCritical
 1172              	.LVL136:
 1173 0010 38BD     		pop	{r3, r4, r5, pc}
 1174              		.cfi_endproc
 1175              	.LFE24:
 1176              		.size	vTimerSetTimerID, .-vTimerSetTimerID
 1177 0012 00BF     		.section	.rodata.str1.4,"aMS",%progbits,1
 1178              		.align	2
 1179              	.LC0:
 1180 0000 546D7251 		.ascii	"TmrQ\000"
 1180      00
 1181 0005 000000   		.space	3
 1182              	.LC1:
 1183 0008 546D7220 		.ascii	"Tmr Svc\000"
 1183      53766300 
 1184              		.bss
 1185              		.align	2
 1186              		.set	.LANCHOR0,. + 0
 1187              		.type	pxCurrentTimerList, %object
 1188              		.size	pxCurrentTimerList, 4
 1189              	pxCurrentTimerList:
 1190 0000 00000000 		.space	4
 1191              		.type	pxOverflowTimerList, %object
 1192              		.size	pxOverflowTimerList, 4
 1193              	pxOverflowTimerList:
 1194 0004 00000000 		.space	4
 1195              		.type	xTimerQueue, %object
 1196              		.size	xTimerQueue, 4
 1197              	xTimerQueue:
 1198 0008 00000000 		.space	4
 1199              		.type	xActiveTimerList1, %object
 1200              		.size	xActiveTimerList1, 20
 1201              	xActiveTimerList1:
 1202 000c 00000000 		.space	20
 1202      00000000 
 1202      00000000 
 1202      00000000 
 1202      00000000 
 1203              		.type	xActiveTimerList2, %object
 1204              		.size	xActiveTimerList2, 20
 1205              	xActiveTimerList2:
 1206 0020 00000000 		.space	20
 1206      00000000 
 1206      00000000 
 1206      00000000 
 1206      00000000 
 1207              		.type	xTimerTaskHandle, %object
 1208              		.size	xTimerTaskHandle, 4
 1209              	xTimerTaskHandle:
ARM GAS  C:\Users\nicol\AppData\Local\Temp\ccYDRgtd.s 			page 42


 1210 0034 00000000 		.space	4
 1211              		.type	xLastTime.5441, %object
 1212              		.size	xLastTime.5441, 4
 1213              	xLastTime.5441:
 1214 0038 00000000 		.space	4
 1215              		.text
 1216              	.Letext0:
 1217              		.file 2 "d:\\cypress\\psoc creator\\4.4\\psoc creator\\import\\gnu\\arm\\5.4.1\\arm-none-eabi\\inc
 1218              		.file 3 "d:\\cypress\\psoc creator\\4.4\\psoc creator\\import\\gnu\\arm\\5.4.1\\arm-none-eabi\\inc
 1219              		.file 4 ".\\FreeRTOS\\include/portmacro.h"
 1220              		.file 5 ".\\FreeRTOS\\include/list.h"
 1221              		.file 6 ".\\FreeRTOS\\include/task.h"
 1222              		.file 7 ".\\FreeRTOS\\include/queue.h"
 1223              		.file 8 ".\\FreeRTOS\\include/timers.h"
 1224              		.file 9 ".\\FreeRTOS\\include/portable.h"