ARM GAS  C:\Users\nicol\AppData\Local\Temp\cc6yqstk.s 			page 1


   1              		.syntax unified
   2              		.cpu cortex-m3
   3              		.fpu softvfp
   4              		.eabi_attribute 20, 1
   5              		.eabi_attribute 21, 1
   6              		.eabi_attribute 23, 3
   7              		.eabi_attribute 24, 1
   8              		.eabi_attribute 25, 1
   9              		.eabi_attribute 26, 1
  10              		.eabi_attribute 30, 1
  11              		.eabi_attribute 34, 1
  12              		.eabi_attribute 18, 4
  13              		.thumb
  14              		.syntax unified
  15              		.file	"main.c"
  16              		.text
  17              	.Ltext0:
  18              		.cfi_sections	.debug_frame
  19              		.section	.text.exo1_loop,"ax",%progbits
  20              		.align	2
  21              		.global	exo1_loop
  22              		.thumb
  23              		.thumb_func
  24              		.type	exo1_loop, %function
  25              	exo1_loop:
  26              	.LFB63:
  27              		.file 1 "main.c"
   1:main.c        **** /* ========================================
   2:main.c        ****  *
   3:main.c        ****  * Copyright YOUR COMPANY, THE YEAR
   4:main.c        ****  * All Rights Reserved
   5:main.c        ****  * UNPUBLISHED, LICENSED SOFTWARE.
   6:main.c        ****  *
   7:main.c        ****  * CONFIDENTIAL AND PROPRIETARY INFORMATION
   8:main.c        ****  * WHICH IS THE PROPERTY OF your company.
   9:main.c        ****  *
  10:main.c        ****  * ========================================
  11:main.c        **** */
  12:main.c        **** #include "project.h"
  13:main.c        **** 
  14:main.c        **** void exo1_loop(){
  28              		.loc 1 14 0
  29              		.cfi_startproc
  30              		@ args = 0, pretend = 0, frame = 0
  31              		@ frame_needed = 0, uses_anonymous_args = 0
  32 0000 08B5     		push	{r3, lr}
  33              		.cfi_def_cfa_offset 8
  34              		.cfi_offset 3, -8
  35              		.cfi_offset 14, -4
  15:main.c        ****     uint8 s1 = SW1_Read();
  36              		.loc 1 15 0
  37 0002 FFF7FEFF 		bl	SW1_Read
  38              	.LVL0:
  16:main.c        ****     LED1_Write(s1);
  39              		.loc 1 16 0
  40 0006 FFF7FEFF 		bl	LED1_Write
  41              	.LVL1:
ARM GAS  C:\Users\nicol\AppData\Local\Temp\cc6yqstk.s 			page 2


  17:main.c        ****     
  18:main.c        ****     uint8 s2 = SW2_Read();
  42              		.loc 1 18 0
  43 000a FFF7FEFF 		bl	SW2_Read
  44              	.LVL2:
  19:main.c        ****     LED2_Write(s2);
  45              		.loc 1 19 0
  46 000e FFF7FEFF 		bl	LED2_Write
  47              	.LVL3:
  20:main.c        ****     
  21:main.c        ****     uint8 s3 = SW3_Read();
  48              		.loc 1 21 0
  49 0012 FFF7FEFF 		bl	SW3_Read
  50              	.LVL4:
  22:main.c        ****     LED3_Write(s3);
  51              		.loc 1 22 0
  52 0016 FFF7FEFF 		bl	LED3_Write
  53              	.LVL5:
  23:main.c        ****     
  24:main.c        ****     uint8 s4 = SW4_Read();
  54              		.loc 1 24 0
  55 001a FFF7FEFF 		bl	SW4_Read
  56              	.LVL6:
  25:main.c        ****     LED4_Write(s4);
  57              		.loc 1 25 0
  58 001e FFF7FEFF 		bl	LED4_Write
  59              	.LVL7:
  60 0022 08BD     		pop	{r3, pc}
  61              		.cfi_endproc
  62              	.LFE63:
  63              		.size	exo1_loop, .-exo1_loop
  64              		.section	.text.exo2_setup,"ax",%progbits
  65              		.align	2
  66              		.global	exo2_setup
  67              		.thumb
  68              		.thumb_func
  69              		.type	exo2_setup, %function
  70              	exo2_setup:
  71              	.LFB64:
  26:main.c        ****     
  27:main.c        ****     //CyDelay(50);
  28:main.c        ****     
  29:main.c        **** }
  30:main.c        **** 
  31:main.c        **** void exo2_setup(){
  72              		.loc 1 31 0
  73              		.cfi_startproc
  74              		@ args = 0, pretend = 0, frame = 0
  75              		@ frame_needed = 0, uses_anonymous_args = 0
  76 0000 08B5     		push	{r3, lr}
  77              		.cfi_def_cfa_offset 8
  78              		.cfi_offset 3, -8
  79              		.cfi_offset 14, -4
  32:main.c        ****     LCD_Init();
  80              		.loc 1 32 0
  81 0002 FFF7FEFF 		bl	LCD_Init
  82              	.LVL8:
ARM GAS  C:\Users\nicol\AppData\Local\Temp\cc6yqstk.s 			page 3


  83 0006 08BD     		pop	{r3, pc}
  84              		.cfi_endproc
  85              	.LFE64:
  86              		.size	exo2_setup, .-exo2_setup
  87              		.section	.text.exo2_loop,"ax",%progbits
  88              		.align	2
  89              		.global	exo2_loop
  90              		.thumb
  91              		.thumb_func
  92              		.type	exo2_loop, %function
  93              	exo2_loop:
  94              	.LFB65:
  33:main.c        **** }
  34:main.c        **** 
  35:main.c        **** uint8 SW_counter = 0;
  36:main.c        **** 
  37:main.c        **** void exo2_loop(){
  95              		.loc 1 37 0
  96              		.cfi_startproc
  97              		@ args = 0, pretend = 0, frame = 0
  98              		@ frame_needed = 0, uses_anonymous_args = 0
  99 0000 08B5     		push	{r3, lr}
 100              		.cfi_def_cfa_offset 8
 101              		.cfi_offset 3, -8
 102              		.cfi_offset 14, -4
  38:main.c        ****     LCD_ClearDisplay();
 103              		.loc 1 38 0
 104 0002 0120     		movs	r0, #1
 105 0004 FFF7FEFF 		bl	LCD_WriteControl
 106              	.LVL9:
  39:main.c        ****     LCD_Position(0,0);
 107              		.loc 1 39 0
 108 0008 0021     		movs	r1, #0
 109 000a 0846     		mov	r0, r1
 110 000c FFF7FEFF 		bl	LCD_Position
 111              	.LVL10:
  40:main.c        ****     LCD_PrintString("SW2 coun");
 112              		.loc 1 40 0
 113 0010 0E48     		ldr	r0, .L9
 114 0012 FFF7FEFF 		bl	LCD_PrintString
 115              	.LVL11:
  41:main.c        ****     LCD_Position(1,0);
 116              		.loc 1 41 0
 117 0016 0021     		movs	r1, #0
 118 0018 0120     		movs	r0, #1
 119 001a FFF7FEFF 		bl	LCD_Position
 120              	.LVL12:
  42:main.c        ****     LCD_PrintString("t: ");
 121              		.loc 1 42 0
 122 001e 0C48     		ldr	r0, .L9+4
 123 0020 FFF7FEFF 		bl	LCD_PrintString
 124              	.LVL13:
  43:main.c        **** 
  44:main.c        ****     
  45:main.c        ****     LCD_PrintDecUint16(SW_counter);
 125              		.loc 1 45 0
 126 0024 0B4B     		ldr	r3, .L9+8
ARM GAS  C:\Users\nicol\AppData\Local\Temp\cc6yqstk.s 			page 4


 127 0026 1878     		ldrb	r0, [r3]	@ zero_extendqisi2
 128 0028 FFF7FEFF 		bl	LCD_PrintU32Number
 129              	.LVL14:
 130              	.L6:
  46:main.c        ****     
  47:main.c        ****     while(!SW1_Read());
 131              		.loc 1 47 0 discriminator 1
 132 002c FFF7FEFF 		bl	SW1_Read
 133              	.LVL15:
 134 0030 0028     		cmp	r0, #0
 135 0032 FBD0     		beq	.L6
  48:main.c        ****     SW_counter++;
 136              		.loc 1 48 0
 137 0034 074A     		ldr	r2, .L9+8
 138 0036 1378     		ldrb	r3, [r2]	@ zero_extendqisi2
 139 0038 0133     		adds	r3, r3, #1
 140 003a 1370     		strb	r3, [r2]
 141              	.L7:
  49:main.c        ****     while(SW1_Read());
 142              		.loc 1 49 0 discriminator 1
 143 003c FFF7FEFF 		bl	SW1_Read
 144              	.LVL16:
 145 0040 0028     		cmp	r0, #0
 146 0042 FBD1     		bne	.L7
  50:main.c        ****     
  51:main.c        ****     CyDelay(50);
 147              		.loc 1 51 0
 148 0044 3220     		movs	r0, #50
 149 0046 FFF7FEFF 		bl	CyDelay
 150              	.LVL17:
 151 004a 08BD     		pop	{r3, pc}
 152              	.L10:
 153              		.align	2
 154              	.L9:
 155 004c 00000000 		.word	.LC0
 156 0050 0C000000 		.word	.LC1
 157 0054 00000000 		.word	.LANCHOR0
 158              		.cfi_endproc
 159              	.LFE65:
 160              		.size	exo2_loop, .-exo2_loop
 161              		.section	.text.exo3_init,"ax",%progbits
 162              		.align	2
 163              		.global	exo3_init
 164              		.thumb
 165              		.thumb_func
 166              		.type	exo3_init, %function
 167              	exo3_init:
 168              	.LFB66:
  52:main.c        ****     
  53:main.c        **** }
  54:main.c        **** 
  55:main.c        **** void exo3_init(){
 169              		.loc 1 55 0
 170              		.cfi_startproc
 171              		@ args = 0, pretend = 0, frame = 0
 172              		@ frame_needed = 0, uses_anonymous_args = 0
 173 0000 08B5     		push	{r3, lr}
ARM GAS  C:\Users\nicol\AppData\Local\Temp\cc6yqstk.s 			page 5


 174              		.cfi_def_cfa_offset 8
 175              		.cfi_offset 3, -8
 176              		.cfi_offset 14, -4
  56:main.c        ****     LCD_Init();
 177              		.loc 1 56 0
 178 0002 FFF7FEFF 		bl	LCD_Init
 179              	.LVL18:
  57:main.c        ****     keyboard_Start();
 180              		.loc 1 57 0
 181 0006 FFF7FEFF 		bl	keyboard_Start
 182              	.LVL19:
 183 000a 08BD     		pop	{r3, pc}
 184              		.cfi_endproc
 185              	.LFE66:
 186              		.size	exo3_init, .-exo3_init
 187              		.section	.text.exo3_loop,"ax",%progbits
 188              		.align	2
 189              		.global	exo3_loop
 190              		.thumb
 191              		.thumb_func
 192              		.type	exo3_loop, %function
 193              	exo3_loop:
 194              	.LFB67:
  58:main.c        **** }
  59:main.c        **** 
  60:main.c        **** void exo3_loop(){
 195              		.loc 1 60 0
 196              		.cfi_startproc
 197              		@ args = 0, pretend = 0, frame = 0
 198              		@ frame_needed = 0, uses_anonymous_args = 0
 199 0000 08B5     		push	{r3, lr}
 200              		.cfi_def_cfa_offset 8
 201              		.cfi_offset 3, -8
 202              		.cfi_offset 14, -4
  61:main.c        ****     LCD_ClearDisplay();
 203              		.loc 1 61 0
 204 0002 0120     		movs	r0, #1
 205 0004 FFF7FEFF 		bl	LCD_WriteControl
 206              	.LVL20:
  62:main.c        ****     
  63:main.c        ****     char8 letter = keyboard_Scan();
 207              		.loc 1 63 0
 208 0008 FFF7FEFF 		bl	keyboard_Scan
 209              	.LVL21:
  64:main.c        ****     if(letter != 'z'){
 210              		.loc 1 64 0
 211 000c 7A28     		cmp	r0, #122
 212 000e 01D0     		beq	.L14
  65:main.c        ****         LCD_PutChar(letter);
 213              		.loc 1 65 0
 214 0010 FFF7FEFF 		bl	LCD_PutChar
 215              	.LVL22:
 216              	.L14:
  66:main.c        ****     }
  67:main.c        ****     CyDelay(50);
 217              		.loc 1 67 0
 218 0014 3220     		movs	r0, #50
ARM GAS  C:\Users\nicol\AppData\Local\Temp\cc6yqstk.s 			page 6


 219 0016 FFF7FEFF 		bl	CyDelay
 220              	.LVL23:
 221 001a 08BD     		pop	{r3, pc}
 222              		.cfi_endproc
 223              	.LFE67:
 224              		.size	exo3_loop, .-exo3_loop
 225              		.section	.text.exo4,"ax",%progbits
 226              		.align	2
 227              		.global	exo4
 228              		.thumb
 229              		.thumb_func
 230              		.type	exo4, %function
 231              	exo4:
 232              	.LFB68:
  68:main.c        **** }
  69:main.c        **** 
  70:main.c        **** uint8 val = 0;
  71:main.c        **** 
  72:main.c        **** void exo4(){
 233              		.loc 1 72 0
 234              		.cfi_startproc
 235              		@ args = 0, pretend = 0, frame = 0
 236              		@ frame_needed = 0, uses_anonymous_args = 0
 237 0000 08B5     		push	{r3, lr}
 238              		.cfi_def_cfa_offset 8
 239              		.cfi_offset 3, -8
 240              		.cfi_offset 14, -4
  73:main.c        ****     if(val)
 241              		.loc 1 73 0
 242 0002 094B     		ldr	r3, .L20
 243 0004 5B78     		ldrb	r3, [r3, #1]	@ zero_extendqisi2
 244 0006 1BB1     		cbz	r3, .L17
  74:main.c        ****         val--;
 245              		.loc 1 74 0
 246 0008 013B     		subs	r3, r3, #1
 247 000a 074A     		ldr	r2, .L20
 248 000c 5370     		strb	r3, [r2, #1]
 249 000e 02E0     		b	.L18
 250              	.L17:
  75:main.c        ****     else
  76:main.c        ****         val++;
 251              		.loc 1 76 0
 252 0010 0133     		adds	r3, r3, #1
 253 0012 054A     		ldr	r2, .L20
 254 0014 5370     		strb	r3, [r2, #1]
 255              	.L18:
  77:main.c        ****     
  78:main.c        ****     GPIOJ11_Write(val);
 256              		.loc 1 78 0
 257 0016 044B     		ldr	r3, .L20
 258 0018 5878     		ldrb	r0, [r3, #1]	@ zero_extendqisi2
 259 001a FFF7FEFF 		bl	GPIOJ11_Write
 260              	.LVL24:
  79:main.c        ****     CyDelay(25);
 261              		.loc 1 79 0
 262 001e 1920     		movs	r0, #25
 263 0020 FFF7FEFF 		bl	CyDelay
ARM GAS  C:\Users\nicol\AppData\Local\Temp\cc6yqstk.s 			page 7


 264              	.LVL25:
 265 0024 08BD     		pop	{r3, pc}
 266              	.L21:
 267 0026 00BF     		.align	2
 268              	.L20:
 269 0028 00000000 		.word	.LANCHOR0
 270              		.cfi_endproc
 271              	.LFE68:
 272              		.size	exo4, .-exo4
 273              		.section	.text.exo5,"ax",%progbits
 274              		.align	2
 275              		.global	exo5
 276              		.thumb
 277              		.thumb_func
 278              		.type	exo5, %function
 279              	exo5:
 280              	.LFB69:
  80:main.c        **** }
  81:main.c        **** 
  82:main.c        **** void exo5(){
 281              		.loc 1 82 0
 282              		.cfi_startproc
 283              		@ args = 0, pretend = 0, frame = 0
 284              		@ frame_needed = 0, uses_anonymous_args = 0
 285 0000 08B5     		push	{r3, lr}
 286              		.cfi_def_cfa_offset 8
 287              		.cfi_offset 3, -8
 288              		.cfi_offset 14, -4
  83:main.c        ****     GPIOJ12_Write(SW4_Read());   
 289              		.loc 1 83 0
 290 0002 FFF7FEFF 		bl	SW4_Read
 291              	.LVL26:
 292 0006 FFF7FEFF 		bl	GPIOJ12_Write
 293              	.LVL27:
 294 000a 08BD     		pop	{r3, pc}
 295              		.cfi_endproc
 296              	.LFE69:
 297              		.size	exo5, .-exo5
 298              		.section	.text.main,"ax",%progbits
 299              		.align	2
 300              		.global	main
 301              		.thumb
 302              		.thumb_func
 303              		.type	main, %function
 304              	main:
 305              	.LFB70:
  84:main.c        **** }
  85:main.c        **** 
  86:main.c        **** int main(void)
  87:main.c        **** {
 306              		.loc 1 87 0
 307              		.cfi_startproc
 308              		@ Volatile: function does not return.
 309              		@ args = 0, pretend = 0, frame = 0
 310              		@ frame_needed = 0, uses_anonymous_args = 0
 311 0000 08B5     		push	{r3, lr}
 312              		.cfi_def_cfa_offset 8
ARM GAS  C:\Users\nicol\AppData\Local\Temp\cc6yqstk.s 			page 8


 313              		.cfi_offset 3, -8
 314              		.cfi_offset 14, -4
  88:main.c        ****     CyGlobalIntEnable; /* Enable global interrupts. */
 315              		.loc 1 88 0
 316              		.syntax unified
 317              	@ 88 "main.c" 1
 318 0002 62B6     		CPSIE   i
 319              	@ 0 "" 2
 320              		.thumb
 321              		.syntax unified
 322              	.L25:
  89:main.c        **** 
  90:main.c        ****     /* Place your initialization/startup code here (e.g. MyInst_Start()) */
  91:main.c        ****     
  92:main.c        ****     for(;;)
  93:main.c        ****     {
  94:main.c        ****         /* Place your application code here. */
  95:main.c        ****         
  96:main.c        ****         exo4();
 323              		.loc 1 96 0 discriminator 1
 324 0004 FFF7FEFF 		bl	exo4
 325              	.LVL28:
  97:main.c        ****         exo5();
 326              		.loc 1 97 0 discriminator 1
 327 0008 FFF7FEFF 		bl	exo5
 328              	.LVL29:
 329 000c FAE7     		b	.L25
 330              		.cfi_endproc
 331              	.LFE70:
 332              		.size	main, .-main
 333              		.global	val
 334              		.global	SW_counter
 335 000e 00BF     		.section	.rodata.str1.4,"aMS",%progbits,1
 336              		.align	2
 337              	.LC0:
 338 0000 53573220 		.ascii	"SW2 coun\000"
 338      636F756E 
 338      00
 339 0009 000000   		.space	3
 340              	.LC1:
 341 000c 743A2000 		.ascii	"t: \000"
 342              		.bss
 343              		.set	.LANCHOR0,. + 0
 344              		.type	SW_counter, %object
 345              		.size	SW_counter, 1
 346              	SW_counter:
 347 0000 00       		.space	1
 348              		.type	val, %object
 349              		.size	val, 1
 350              	val:
 351 0001 00       		.space	1
 352              		.text
 353              	.Letext0:
 354              		.file 2 "d:\\cypress\\psoc creator\\4.4\\psoc creator\\import\\gnu\\arm\\5.4.1\\arm-none-eabi\\inc
 355              		.file 3 "d:\\cypress\\psoc creator\\4.4\\psoc creator\\import\\gnu\\arm\\5.4.1\\arm-none-eabi\\inc
 356              		.file 4 "Generated_Source\\PSoC5/cytypes.h"
 357              		.file 5 "Generated_Source\\PSoC5/core_cm3.h"
ARM GAS  C:\Users\nicol\AppData\Local\Temp\cc6yqstk.s 			page 9


 358              		.file 6 "Generated_Source\\PSoC5/SW1.h"
 359              		.file 7 "Generated_Source\\PSoC5/LED1.h"
 360              		.file 8 "Generated_Source\\PSoC5/SW2.h"
 361              		.file 9 "Generated_Source\\PSoC5/LED2.h"
 362              		.file 10 "Generated_Source\\PSoC5/SW3.h"
 363              		.file 11 "Generated_Source\\PSoC5/LED3.h"
 364              		.file 12 "Generated_Source\\PSoC5/SW4.h"
 365              		.file 13 "Generated_Source\\PSoC5/LED4.h"
 366              		.file 14 "Generated_Source\\PSoC5/LCD.h"
 367              		.file 15 "Generated_Source\\PSoC5/CyLib.h"
 368              		.file 16 "Generated_Source\\PSoC5/keyboard_keyboard.h"
 369              		.file 17 "Generated_Source\\PSoC5/GPIOJ11.h"
 370              		.file 18 "Generated_Source\\PSoC5/GPIOJ12.h"