ARM GAS  C:\Users\nicol\AppData\Local\Temp\ccWDhUc9.s 			page 1


   1              		.syntax unified
   2              		.cpu cortex-m3
   3              		.fpu softvfp
   4              		.eabi_attribute 20, 1
   5              		.eabi_attribute 21, 1
   6              		.eabi_attribute 23, 3
   7              		.eabi_attribute 24, 1
   8              		.eabi_attribute 25, 1
   9              		.eabi_attribute 26, 1
  10              		.eabi_attribute 30, 1
  11              		.eabi_attribute 34, 1
  12              		.eabi_attribute 18, 4
  13              		.thumb
  14              		.syntax unified
  15              		.file	"heap_2.c"
  16              		.text
  17              	.Ltext0:
  18              		.cfi_sections	.debug_frame
  19              		.section	.text.prvHeapInit,"ax",%progbits
  20              		.align	2
  21              		.thumb
  22              		.thumb_func
  23              		.type	prvHeapInit, %function
  24              	prvHeapInit:
  25              	.LFB9:
  26              		.file 1 "FreeRTOS\\src\\heap_2.c"
   1:FreeRTOS\src/heap_2.c **** /*
   2:FreeRTOS\src/heap_2.c ****  * FreeRTOS Kernel V10.1.1
   3:FreeRTOS\src/heap_2.c ****  * Copyright (C) 2018 Amazon.com, Inc. or its affiliates.  All Rights Reserved.
   4:FreeRTOS\src/heap_2.c ****  *
   5:FreeRTOS\src/heap_2.c ****  * Permission is hereby granted, free of charge, to any person obtaining a copy of
   6:FreeRTOS\src/heap_2.c ****  * this software and associated documentation files (the "Software"), to deal in
   7:FreeRTOS\src/heap_2.c ****  * the Software without restriction, including without limitation the rights to
   8:FreeRTOS\src/heap_2.c ****  * use, copy, modify, merge, publish, distribute, sublicense, and/or sell copies of
   9:FreeRTOS\src/heap_2.c ****  * the Software, and to permit persons to whom the Software is furnished to do so,
  10:FreeRTOS\src/heap_2.c ****  * subject to the following conditions:
  11:FreeRTOS\src/heap_2.c ****  *
  12:FreeRTOS\src/heap_2.c ****  * The above copyright notice and this permission notice shall be included in all
  13:FreeRTOS\src/heap_2.c ****  * copies or substantial portions of the Software.
  14:FreeRTOS\src/heap_2.c ****  *
  15:FreeRTOS\src/heap_2.c ****  * THE SOFTWARE IS PROVIDED "AS IS", WITHOUT WARRANTY OF ANY KIND, EXPRESS OR
  16:FreeRTOS\src/heap_2.c ****  * IMPLIED, INCLUDING BUT NOT LIMITED TO THE WARRANTIES OF MERCHANTABILITY, FITNESS
  17:FreeRTOS\src/heap_2.c ****  * FOR A PARTICULAR PURPOSE AND NONINFRINGEMENT. IN NO EVENT SHALL THE AUTHORS OR
  18:FreeRTOS\src/heap_2.c ****  * COPYRIGHT HOLDERS BE LIABLE FOR ANY CLAIM, DAMAGES OR OTHER LIABILITY, WHETHER
  19:FreeRTOS\src/heap_2.c ****  * IN AN ACTION OF CONTRACT, TORT OR OTHERWISE, ARISING FROM, OUT OF OR IN
  20:FreeRTOS\src/heap_2.c ****  * CONNECTION WITH THE SOFTWARE OR THE USE OR OTHER DEALINGS IN THE SOFTWARE.
  21:FreeRTOS\src/heap_2.c ****  *
  22:FreeRTOS\src/heap_2.c ****  * http://www.FreeRTOS.org
  23:FreeRTOS\src/heap_2.c ****  * http://aws.amazon.com/freertos
  24:FreeRTOS\src/heap_2.c ****  *
  25:FreeRTOS\src/heap_2.c ****  * 1 tab == 4 spaces!
  26:FreeRTOS\src/heap_2.c ****  */
  27:FreeRTOS\src/heap_2.c **** 
  28:FreeRTOS\src/heap_2.c **** /*
  29:FreeRTOS\src/heap_2.c ****  * A sample implementation of pvPortMalloc() and vPortFree() that permits
  30:FreeRTOS\src/heap_2.c ****  * allocated blocks to be freed, but does not combine adjacent free blocks
  31:FreeRTOS\src/heap_2.c ****  * into a single larger block (and so will fragment memory).  See heap_4.c for
ARM GAS  C:\Users\nicol\AppData\Local\Temp\ccWDhUc9.s 			page 2


  32:FreeRTOS\src/heap_2.c ****  * an equivalent that does combine adjacent blocks into single larger blocks.
  33:FreeRTOS\src/heap_2.c ****  *
  34:FreeRTOS\src/heap_2.c ****  * See heap_1.c, heap_3.c and heap_4.c for alternative implementations, and the
  35:FreeRTOS\src/heap_2.c ****  * memory management pages of http://www.FreeRTOS.org for more information.
  36:FreeRTOS\src/heap_2.c ****  */
  37:FreeRTOS\src/heap_2.c **** #include <stdlib.h>
  38:FreeRTOS\src/heap_2.c **** 
  39:FreeRTOS\src/heap_2.c **** /* Defining MPU_WRAPPERS_INCLUDED_FROM_API_FILE prevents task.h from redefining
  40:FreeRTOS\src/heap_2.c **** all the API functions to use the MPU wrappers.  That should only be done when
  41:FreeRTOS\src/heap_2.c **** task.h is included from an application file. */
  42:FreeRTOS\src/heap_2.c **** #define MPU_WRAPPERS_INCLUDED_FROM_API_FILE
  43:FreeRTOS\src/heap_2.c **** 
  44:FreeRTOS\src/heap_2.c **** #include "FreeRTOS.h"
  45:FreeRTOS\src/heap_2.c **** #include "task.h"
  46:FreeRTOS\src/heap_2.c **** 
  47:FreeRTOS\src/heap_2.c **** #undef MPU_WRAPPERS_INCLUDED_FROM_API_FILE
  48:FreeRTOS\src/heap_2.c **** 
  49:FreeRTOS\src/heap_2.c **** #if( configSUPPORT_DYNAMIC_ALLOCATION == 0 )
  50:FreeRTOS\src/heap_2.c **** 	#error This file must not be used if configSUPPORT_DYNAMIC_ALLOCATION is 0
  51:FreeRTOS\src/heap_2.c **** #endif
  52:FreeRTOS\src/heap_2.c **** 
  53:FreeRTOS\src/heap_2.c **** /* A few bytes might be lost to byte aligning the heap start address. */
  54:FreeRTOS\src/heap_2.c **** #define configADJUSTED_HEAP_SIZE	( configTOTAL_HEAP_SIZE - portBYTE_ALIGNMENT )
  55:FreeRTOS\src/heap_2.c **** 
  56:FreeRTOS\src/heap_2.c **** /*
  57:FreeRTOS\src/heap_2.c ****  * Initialises the heap structures before their first use.
  58:FreeRTOS\src/heap_2.c ****  */
  59:FreeRTOS\src/heap_2.c **** static void prvHeapInit( void );
  60:FreeRTOS\src/heap_2.c **** 
  61:FreeRTOS\src/heap_2.c **** /* Allocate the memory for the heap. */
  62:FreeRTOS\src/heap_2.c **** #if( configAPPLICATION_ALLOCATED_HEAP == 1 )
  63:FreeRTOS\src/heap_2.c **** 	/* The application writer has already defined the array used for the RTOS
  64:FreeRTOS\src/heap_2.c **** 	heap - probably so it can be placed in a special segment or address. */
  65:FreeRTOS\src/heap_2.c **** 	extern uint8_t ucHeap[ configTOTAL_HEAP_SIZE ];
  66:FreeRTOS\src/heap_2.c **** #else
  67:FreeRTOS\src/heap_2.c **** 	static uint8_t ucHeap[ configTOTAL_HEAP_SIZE ];
  68:FreeRTOS\src/heap_2.c **** #endif /* configAPPLICATION_ALLOCATED_HEAP */
  69:FreeRTOS\src/heap_2.c **** 
  70:FreeRTOS\src/heap_2.c **** 
  71:FreeRTOS\src/heap_2.c **** /* Define the linked list structure.  This is used to link free blocks in order
  72:FreeRTOS\src/heap_2.c **** of their size. */
  73:FreeRTOS\src/heap_2.c **** typedef struct A_BLOCK_LINK
  74:FreeRTOS\src/heap_2.c **** {
  75:FreeRTOS\src/heap_2.c **** 	struct A_BLOCK_LINK *pxNextFreeBlock;	/*<< The next free block in the list. */
  76:FreeRTOS\src/heap_2.c **** 	size_t xBlockSize;						/*<< The size of the free block. */
  77:FreeRTOS\src/heap_2.c **** } BlockLink_t;
  78:FreeRTOS\src/heap_2.c **** 
  79:FreeRTOS\src/heap_2.c **** 
  80:FreeRTOS\src/heap_2.c **** static const uint16_t heapSTRUCT_SIZE	= ( ( sizeof ( BlockLink_t ) + ( portBYTE_ALIGNMENT - 1 ) ) &
  81:FreeRTOS\src/heap_2.c **** #define heapMINIMUM_BLOCK_SIZE	( ( size_t ) ( heapSTRUCT_SIZE * 2 ) )
  82:FreeRTOS\src/heap_2.c **** 
  83:FreeRTOS\src/heap_2.c **** /* Create a couple of list links to mark the start and end of the list. */
  84:FreeRTOS\src/heap_2.c **** static BlockLink_t xStart, xEnd;
  85:FreeRTOS\src/heap_2.c **** 
  86:FreeRTOS\src/heap_2.c **** /* Keeps track of the number of free bytes remaining, but says nothing about
  87:FreeRTOS\src/heap_2.c **** fragmentation. */
  88:FreeRTOS\src/heap_2.c **** static size_t xFreeBytesRemaining = configADJUSTED_HEAP_SIZE;
ARM GAS  C:\Users\nicol\AppData\Local\Temp\ccWDhUc9.s 			page 3


  89:FreeRTOS\src/heap_2.c **** 
  90:FreeRTOS\src/heap_2.c **** /* STATIC FUNCTIONS ARE DEFINED AS MACROS TO MINIMIZE THE FUNCTION CALL DEPTH. */
  91:FreeRTOS\src/heap_2.c **** 
  92:FreeRTOS\src/heap_2.c **** /*
  93:FreeRTOS\src/heap_2.c ****  * Insert a block into the list of free blocks - which is ordered by size of
  94:FreeRTOS\src/heap_2.c ****  * the block.  Small blocks at the start of the list and large blocks at the end
  95:FreeRTOS\src/heap_2.c ****  * of the list.
  96:FreeRTOS\src/heap_2.c ****  */
  97:FreeRTOS\src/heap_2.c **** #define prvInsertBlockIntoFreeList( pxBlockToInsert )								\
  98:FreeRTOS\src/heap_2.c **** {																					\
  99:FreeRTOS\src/heap_2.c **** BlockLink_t *pxIterator;															\
 100:FreeRTOS\src/heap_2.c **** size_t xBlockSize;																	\
 101:FreeRTOS\src/heap_2.c **** 																					\
 102:FreeRTOS\src/heap_2.c **** 	xBlockSize = pxBlockToInsert->xBlockSize;										\
 103:FreeRTOS\src/heap_2.c **** 																					\
 104:FreeRTOS\src/heap_2.c **** 	/* Iterate through the list until a block is found that has a larger size */	\
 105:FreeRTOS\src/heap_2.c **** 	/* than the block we are inserting. */											\
 106:FreeRTOS\src/heap_2.c **** 	for( pxIterator = &xStart; pxIterator->pxNextFreeBlock->xBlockSize < xBlockSize; pxIterator = pxIt
 107:FreeRTOS\src/heap_2.c **** 	{																				\
 108:FreeRTOS\src/heap_2.c **** 		/* There is nothing to do here - just iterate to the correct position. */	\
 109:FreeRTOS\src/heap_2.c **** 	}																				\
 110:FreeRTOS\src/heap_2.c **** 																					\
 111:FreeRTOS\src/heap_2.c **** 	/* Update the list to include the block being inserted in the correct */		\
 112:FreeRTOS\src/heap_2.c **** 	/* position. */																	\
 113:FreeRTOS\src/heap_2.c **** 	pxBlockToInsert->pxNextFreeBlock = pxIterator->pxNextFreeBlock;					\
 114:FreeRTOS\src/heap_2.c **** 	pxIterator->pxNextFreeBlock = pxBlockToInsert;									\
 115:FreeRTOS\src/heap_2.c **** }
 116:FreeRTOS\src/heap_2.c **** /*-----------------------------------------------------------*/
 117:FreeRTOS\src/heap_2.c **** 
 118:FreeRTOS\src/heap_2.c **** void *pvPortMalloc( size_t xWantedSize )
 119:FreeRTOS\src/heap_2.c **** {
 120:FreeRTOS\src/heap_2.c **** BlockLink_t *pxBlock, *pxPreviousBlock, *pxNewBlockLink;
 121:FreeRTOS\src/heap_2.c **** static BaseType_t xHeapHasBeenInitialised = pdFALSE;
 122:FreeRTOS\src/heap_2.c **** void *pvReturn = NULL;
 123:FreeRTOS\src/heap_2.c **** 
 124:FreeRTOS\src/heap_2.c **** 	vTaskSuspendAll();
 125:FreeRTOS\src/heap_2.c **** 	{
 126:FreeRTOS\src/heap_2.c **** 		/* If this is the first call to malloc then the heap will require
 127:FreeRTOS\src/heap_2.c **** 		initialisation to setup the list of free blocks. */
 128:FreeRTOS\src/heap_2.c **** 		if( xHeapHasBeenInitialised == pdFALSE )
 129:FreeRTOS\src/heap_2.c **** 		{
 130:FreeRTOS\src/heap_2.c **** 			prvHeapInit();
 131:FreeRTOS\src/heap_2.c **** 			xHeapHasBeenInitialised = pdTRUE;
 132:FreeRTOS\src/heap_2.c **** 		}
 133:FreeRTOS\src/heap_2.c **** 
 134:FreeRTOS\src/heap_2.c **** 		/* The wanted size is increased so it can contain a BlockLink_t
 135:FreeRTOS\src/heap_2.c **** 		structure in addition to the requested amount of bytes. */
 136:FreeRTOS\src/heap_2.c **** 		if( xWantedSize > 0 )
 137:FreeRTOS\src/heap_2.c **** 		{
 138:FreeRTOS\src/heap_2.c **** 			xWantedSize += heapSTRUCT_SIZE;
 139:FreeRTOS\src/heap_2.c **** 
 140:FreeRTOS\src/heap_2.c **** 			/* Ensure that blocks are always aligned to the required number of bytes. */
 141:FreeRTOS\src/heap_2.c **** 			if( ( xWantedSize & portBYTE_ALIGNMENT_MASK ) != 0 )
 142:FreeRTOS\src/heap_2.c **** 			{
 143:FreeRTOS\src/heap_2.c **** 				/* Byte alignment required. */
 144:FreeRTOS\src/heap_2.c **** 				xWantedSize += ( portBYTE_ALIGNMENT - ( xWantedSize & portBYTE_ALIGNMENT_MASK ) );
 145:FreeRTOS\src/heap_2.c **** 			}
ARM GAS  C:\Users\nicol\AppData\Local\Temp\ccWDhUc9.s 			page 4


 146:FreeRTOS\src/heap_2.c **** 		}
 147:FreeRTOS\src/heap_2.c **** 
 148:FreeRTOS\src/heap_2.c **** 		if( ( xWantedSize > 0 ) && ( xWantedSize < configADJUSTED_HEAP_SIZE ) )
 149:FreeRTOS\src/heap_2.c **** 		{
 150:FreeRTOS\src/heap_2.c **** 			/* Blocks are stored in byte order - traverse the list from the start
 151:FreeRTOS\src/heap_2.c **** 			(smallest) block until one of adequate size is found. */
 152:FreeRTOS\src/heap_2.c **** 			pxPreviousBlock = &xStart;
 153:FreeRTOS\src/heap_2.c **** 			pxBlock = xStart.pxNextFreeBlock;
 154:FreeRTOS\src/heap_2.c **** 			while( ( pxBlock->xBlockSize < xWantedSize ) && ( pxBlock->pxNextFreeBlock != NULL ) )
 155:FreeRTOS\src/heap_2.c **** 			{
 156:FreeRTOS\src/heap_2.c **** 				pxPreviousBlock = pxBlock;
 157:FreeRTOS\src/heap_2.c **** 				pxBlock = pxBlock->pxNextFreeBlock;
 158:FreeRTOS\src/heap_2.c **** 			}
 159:FreeRTOS\src/heap_2.c **** 
 160:FreeRTOS\src/heap_2.c **** 			/* If we found the end marker then a block of adequate size was not found. */
 161:FreeRTOS\src/heap_2.c **** 			if( pxBlock != &xEnd )
 162:FreeRTOS\src/heap_2.c **** 			{
 163:FreeRTOS\src/heap_2.c **** 				/* Return the memory space - jumping over the BlockLink_t structure
 164:FreeRTOS\src/heap_2.c **** 				at its start. */
 165:FreeRTOS\src/heap_2.c **** 				pvReturn = ( void * ) ( ( ( uint8_t * ) pxPreviousBlock->pxNextFreeBlock ) + heapSTRUCT_SIZE );
 166:FreeRTOS\src/heap_2.c **** 
 167:FreeRTOS\src/heap_2.c **** 				/* This block is being returned for use so must be taken out of the
 168:FreeRTOS\src/heap_2.c **** 				list of free blocks. */
 169:FreeRTOS\src/heap_2.c **** 				pxPreviousBlock->pxNextFreeBlock = pxBlock->pxNextFreeBlock;
 170:FreeRTOS\src/heap_2.c **** 
 171:FreeRTOS\src/heap_2.c **** 				/* If the block is larger than required it can be split into two. */
 172:FreeRTOS\src/heap_2.c **** 				if( ( pxBlock->xBlockSize - xWantedSize ) > heapMINIMUM_BLOCK_SIZE )
 173:FreeRTOS\src/heap_2.c **** 				{
 174:FreeRTOS\src/heap_2.c **** 					/* This block is to be split into two.  Create a new block
 175:FreeRTOS\src/heap_2.c **** 					following the number of bytes requested. The void cast is
 176:FreeRTOS\src/heap_2.c **** 					used to prevent byte alignment warnings from the compiler. */
 177:FreeRTOS\src/heap_2.c **** 					pxNewBlockLink = ( void * ) ( ( ( uint8_t * ) pxBlock ) + xWantedSize );
 178:FreeRTOS\src/heap_2.c **** 
 179:FreeRTOS\src/heap_2.c **** 					/* Calculate the sizes of two blocks split from the single
 180:FreeRTOS\src/heap_2.c **** 					block. */
 181:FreeRTOS\src/heap_2.c **** 					pxNewBlockLink->xBlockSize = pxBlock->xBlockSize - xWantedSize;
 182:FreeRTOS\src/heap_2.c **** 					pxBlock->xBlockSize = xWantedSize;
 183:FreeRTOS\src/heap_2.c **** 
 184:FreeRTOS\src/heap_2.c **** 					/* Insert the new block into the list of free blocks. */
 185:FreeRTOS\src/heap_2.c **** 					prvInsertBlockIntoFreeList( ( pxNewBlockLink ) );
 186:FreeRTOS\src/heap_2.c **** 				}
 187:FreeRTOS\src/heap_2.c **** 
 188:FreeRTOS\src/heap_2.c **** 				xFreeBytesRemaining -= pxBlock->xBlockSize;
 189:FreeRTOS\src/heap_2.c **** 			}
 190:FreeRTOS\src/heap_2.c **** 		}
 191:FreeRTOS\src/heap_2.c **** 
 192:FreeRTOS\src/heap_2.c **** 		traceMALLOC( pvReturn, xWantedSize );
 193:FreeRTOS\src/heap_2.c **** 	}
 194:FreeRTOS\src/heap_2.c **** 	( void ) xTaskResumeAll();
 195:FreeRTOS\src/heap_2.c **** 
 196:FreeRTOS\src/heap_2.c **** 	#if( configUSE_MALLOC_FAILED_HOOK == 1 )
 197:FreeRTOS\src/heap_2.c **** 	{
 198:FreeRTOS\src/heap_2.c **** 		if( pvReturn == NULL )
 199:FreeRTOS\src/heap_2.c **** 		{
 200:FreeRTOS\src/heap_2.c **** 			extern void vApplicationMallocFailedHook( void );
 201:FreeRTOS\src/heap_2.c **** 			vApplicationMallocFailedHook();
 202:FreeRTOS\src/heap_2.c **** 		}
ARM GAS  C:\Users\nicol\AppData\Local\Temp\ccWDhUc9.s 			page 5


 203:FreeRTOS\src/heap_2.c **** 	}
 204:FreeRTOS\src/heap_2.c **** 	#endif
 205:FreeRTOS\src/heap_2.c **** 
 206:FreeRTOS\src/heap_2.c **** 	return pvReturn;
 207:FreeRTOS\src/heap_2.c **** }
 208:FreeRTOS\src/heap_2.c **** /*-----------------------------------------------------------*/
 209:FreeRTOS\src/heap_2.c **** 
 210:FreeRTOS\src/heap_2.c **** void vPortFree( void *pv )
 211:FreeRTOS\src/heap_2.c **** {
 212:FreeRTOS\src/heap_2.c **** uint8_t *puc = ( uint8_t * ) pv;
 213:FreeRTOS\src/heap_2.c **** BlockLink_t *pxLink;
 214:FreeRTOS\src/heap_2.c **** 
 215:FreeRTOS\src/heap_2.c **** 	if( pv != NULL )
 216:FreeRTOS\src/heap_2.c **** 	{
 217:FreeRTOS\src/heap_2.c **** 		/* The memory being freed will have an BlockLink_t structure immediately
 218:FreeRTOS\src/heap_2.c **** 		before it. */
 219:FreeRTOS\src/heap_2.c **** 		puc -= heapSTRUCT_SIZE;
 220:FreeRTOS\src/heap_2.c **** 
 221:FreeRTOS\src/heap_2.c **** 		/* This unexpected casting is to keep some compilers from issuing
 222:FreeRTOS\src/heap_2.c **** 		byte alignment warnings. */
 223:FreeRTOS\src/heap_2.c **** 		pxLink = ( void * ) puc;
 224:FreeRTOS\src/heap_2.c **** 
 225:FreeRTOS\src/heap_2.c **** 		vTaskSuspendAll();
 226:FreeRTOS\src/heap_2.c **** 		{
 227:FreeRTOS\src/heap_2.c **** 			/* Add this block to the list of free blocks. */
 228:FreeRTOS\src/heap_2.c **** 			prvInsertBlockIntoFreeList( ( ( BlockLink_t * ) pxLink ) );
 229:FreeRTOS\src/heap_2.c **** 			xFreeBytesRemaining += pxLink->xBlockSize;
 230:FreeRTOS\src/heap_2.c **** 			traceFREE( pv, pxLink->xBlockSize );
 231:FreeRTOS\src/heap_2.c **** 		}
 232:FreeRTOS\src/heap_2.c **** 		( void ) xTaskResumeAll();
 233:FreeRTOS\src/heap_2.c **** 	}
 234:FreeRTOS\src/heap_2.c **** }
 235:FreeRTOS\src/heap_2.c **** /*-----------------------------------------------------------*/
 236:FreeRTOS\src/heap_2.c **** 
 237:FreeRTOS\src/heap_2.c **** size_t xPortGetFreeHeapSize( void )
 238:FreeRTOS\src/heap_2.c **** {
 239:FreeRTOS\src/heap_2.c **** 	return xFreeBytesRemaining;
 240:FreeRTOS\src/heap_2.c **** }
 241:FreeRTOS\src/heap_2.c **** /*-----------------------------------------------------------*/
 242:FreeRTOS\src/heap_2.c **** 
 243:FreeRTOS\src/heap_2.c **** void vPortInitialiseBlocks( void )
 244:FreeRTOS\src/heap_2.c **** {
 245:FreeRTOS\src/heap_2.c **** 	/* This just exists to keep the linker quiet. */
 246:FreeRTOS\src/heap_2.c **** }
 247:FreeRTOS\src/heap_2.c **** /*-----------------------------------------------------------*/
 248:FreeRTOS\src/heap_2.c **** 
 249:FreeRTOS\src/heap_2.c **** static void prvHeapInit( void )
 250:FreeRTOS\src/heap_2.c **** {
  27              		.loc 1 250 0
  28              		.cfi_startproc
  29              		@ args = 0, pretend = 0, frame = 0
  30              		@ frame_needed = 0, uses_anonymous_args = 0
  31              		@ link register save eliminated.
 251:FreeRTOS\src/heap_2.c **** BlockLink_t *pxFirstFreeBlock;
 252:FreeRTOS\src/heap_2.c **** uint8_t *pucAlignedHeap;
 253:FreeRTOS\src/heap_2.c **** 
 254:FreeRTOS\src/heap_2.c **** 	/* Ensure the heap starts on a correctly aligned boundary. */
ARM GAS  C:\Users\nicol\AppData\Local\Temp\ccWDhUc9.s 			page 6


 255:FreeRTOS\src/heap_2.c **** 	pucAlignedHeap = ( uint8_t * ) ( ( ( portPOINTER_SIZE_TYPE ) &ucHeap[ portBYTE_ALIGNMENT ] ) & ( ~
  32              		.loc 1 255 0
  33 0000 094A     		ldr	r2, .L2
  34 0002 22F00702 		bic	r2, r2, #7
  35              	.LVL0:
 256:FreeRTOS\src/heap_2.c **** 
 257:FreeRTOS\src/heap_2.c **** 	/* xStart is used to hold a pointer to the first item in the list of free
 258:FreeRTOS\src/heap_2.c **** 	blocks.  The void cast is used to prevent compiler warnings. */
 259:FreeRTOS\src/heap_2.c **** 	xStart.pxNextFreeBlock = ( void * ) pucAlignedHeap;
  36              		.loc 1 259 0
  37 0006 094B     		ldr	r3, .L2+4
  38 0008 C3F83829 		str	r2, [r3, #2360]
 260:FreeRTOS\src/heap_2.c **** 	xStart.xBlockSize = ( size_t ) 0;
  39              		.loc 1 260 0
  40 000c 0020     		movs	r0, #0
  41 000e C3F83C09 		str	r0, [r3, #2364]
 261:FreeRTOS\src/heap_2.c **** 
 262:FreeRTOS\src/heap_2.c **** 	/* xEnd is used to mark the end of the list of free blocks. */
 263:FreeRTOS\src/heap_2.c **** 	xEnd.xBlockSize = configADJUSTED_HEAP_SIZE;
  42              		.loc 1 263 0
  43 0012 47F6F871 		movw	r1, #32760
  44 0016 C3F84419 		str	r1, [r3, #2372]
 264:FreeRTOS\src/heap_2.c **** 	xEnd.pxNextFreeBlock = NULL;
  45              		.loc 1 264 0
  46 001a C3F84009 		str	r0, [r3, #2368]
  47              	.LVL1:
 265:FreeRTOS\src/heap_2.c **** 
 266:FreeRTOS\src/heap_2.c **** 	/* To start with there is a single free block that is sized to take up the
 267:FreeRTOS\src/heap_2.c **** 	entire heap space. */
 268:FreeRTOS\src/heap_2.c **** 	pxFirstFreeBlock = ( void * ) pucAlignedHeap;
 269:FreeRTOS\src/heap_2.c **** 	pxFirstFreeBlock->xBlockSize = configADJUSTED_HEAP_SIZE;
  48              		.loc 1 269 0
  49 001e 5160     		str	r1, [r2, #4]
 270:FreeRTOS\src/heap_2.c **** 	pxFirstFreeBlock->pxNextFreeBlock = &xEnd;
  50              		.loc 1 270 0
  51 0020 03F51463 		add	r3, r3, #2368
  52 0024 1360     		str	r3, [r2]
  53 0026 7047     		bx	lr
  54              	.L3:
  55              		.align	2
  56              	.L2:
  57 0028 08000000 		.word	.LANCHOR0+8
  58 002c C8760000 		.word	.LANCHOR1
  59              		.cfi_endproc
  60              	.LFE9:
  61              		.size	prvHeapInit, .-prvHeapInit
  62              		.section	.text.pvPortMalloc,"ax",%progbits
  63              		.align	2
  64              		.global	pvPortMalloc
  65              		.thumb
  66              		.thumb_func
  67              		.type	pvPortMalloc, %function
  68              	pvPortMalloc:
  69              	.LFB5:
 119:FreeRTOS\src/heap_2.c **** BlockLink_t *pxBlock, *pxPreviousBlock, *pxNewBlockLink;
  70              		.loc 1 119 0
  71              		.cfi_startproc
ARM GAS  C:\Users\nicol\AppData\Local\Temp\ccWDhUc9.s 			page 7


  72              		@ args = 0, pretend = 0, frame = 0
  73              		@ frame_needed = 0, uses_anonymous_args = 0
  74              	.LVL2:
  75 0000 70B5     		push	{r4, r5, r6, lr}
  76              		.cfi_def_cfa_offset 16
  77              		.cfi_offset 4, -16
  78              		.cfi_offset 5, -12
  79              		.cfi_offset 6, -8
  80              		.cfi_offset 14, -4
  81 0002 0446     		mov	r4, r0
  82              	.LVL3:
 124:FreeRTOS\src/heap_2.c **** 	{
  83              		.loc 1 124 0
  84 0004 FFF7FEFF 		bl	vTaskSuspendAll
  85              	.LVL4:
 128:FreeRTOS\src/heap_2.c **** 		{
  86              		.loc 1 128 0
  87 0008 244B     		ldr	r3, .L17
  88 000a D3F84839 		ldr	r3, [r3, #2376]
  89 000e 2BB9     		cbnz	r3, .L5
 130:FreeRTOS\src/heap_2.c **** 			xHeapHasBeenInitialised = pdTRUE;
  90              		.loc 1 130 0
  91 0010 FFF7FEFF 		bl	prvHeapInit
  92              	.LVL5:
 131:FreeRTOS\src/heap_2.c **** 		}
  93              		.loc 1 131 0
  94 0014 0122     		movs	r2, #1
  95 0016 214B     		ldr	r3, .L17
  96 0018 C3F84829 		str	r2, [r3, #2376]
  97              	.L5:
 136:FreeRTOS\src/heap_2.c **** 		{
  98              		.loc 1 136 0
  99 001c 34B1     		cbz	r4, .L6
 138:FreeRTOS\src/heap_2.c **** 
 100              		.loc 1 138 0
 101 001e 0834     		adds	r4, r4, #8
 102              	.LVL6:
 141:FreeRTOS\src/heap_2.c **** 			{
 103              		.loc 1 141 0
 104 0020 14F0070F 		tst	r4, #7
 105 0024 02D0     		beq	.L6
 144:FreeRTOS\src/heap_2.c **** 			}
 106              		.loc 1 144 0
 107 0026 24F00704 		bic	r4, r4, #7
 108              	.LVL7:
 109 002a 0834     		adds	r4, r4, #8
 110              	.LVL8:
 111              	.L6:
 148:FreeRTOS\src/heap_2.c **** 		{
 112              		.loc 1 148 0
 113 002c 621E     		subs	r2, r4, #1
 114 002e 47F6F673 		movw	r3, #32758
 115 0032 9A42     		cmp	r2, r3
 116 0034 2BD8     		bhi	.L12
 117              	.LVL9:
 153:FreeRTOS\src/heap_2.c **** 			while( ( pxBlock->xBlockSize < xWantedSize ) && ( pxBlock->pxNextFreeBlock != NULL ) )
 118              		.loc 1 153 0
ARM GAS  C:\Users\nicol\AppData\Local\Temp\ccWDhUc9.s 			page 8


 119 0036 1949     		ldr	r1, .L17
 120 0038 D1F83839 		ldr	r3, [r1, #2360]
 121              	.LVL10:
 152:FreeRTOS\src/heap_2.c **** 			pxBlock = xStart.pxNextFreeBlock;
 122              		.loc 1 152 0
 123 003c 01F63811 		addw	r1, r1, #2360
 154:FreeRTOS\src/heap_2.c **** 			{
 124              		.loc 1 154 0
 125 0040 01E0     		b	.L9
 126              	.LVL11:
 127              	.L13:
 156:FreeRTOS\src/heap_2.c **** 				pxBlock = pxBlock->pxNextFreeBlock;
 128              		.loc 1 156 0
 129 0042 1946     		mov	r1, r3
 130              	.LVL12:
 157:FreeRTOS\src/heap_2.c **** 			}
 131              		.loc 1 157 0
 132 0044 1346     		mov	r3, r2
 133              	.LVL13:
 134              	.L9:
 154:FreeRTOS\src/heap_2.c **** 			{
 135              		.loc 1 154 0
 136 0046 5A68     		ldr	r2, [r3, #4]
 137 0048 9442     		cmp	r4, r2
 138 004a 02D9     		bls	.L8
 154:FreeRTOS\src/heap_2.c **** 			{
 139              		.loc 1 154 0 is_stmt 0 discriminator 1
 140 004c 1A68     		ldr	r2, [r3]
 141 004e 002A     		cmp	r2, #0
 142 0050 F7D1     		bne	.L13
 143              	.L8:
 161:FreeRTOS\src/heap_2.c **** 			{
 144              		.loc 1 161 0 is_stmt 1
 145 0052 134A     		ldr	r2, .L17+4
 146 0054 9342     		cmp	r3, r2
 147 0056 1CD0     		beq	.L14
 165:FreeRTOS\src/heap_2.c **** 
 148              		.loc 1 165 0
 149 0058 0D68     		ldr	r5, [r1]
 150 005a 0835     		adds	r5, r5, #8
 151              	.LVL14:
 169:FreeRTOS\src/heap_2.c **** 
 152              		.loc 1 169 0
 153 005c 1A68     		ldr	r2, [r3]
 154 005e 0A60     		str	r2, [r1]
 172:FreeRTOS\src/heap_2.c **** 				{
 155              		.loc 1 172 0
 156 0060 5A68     		ldr	r2, [r3, #4]
 157 0062 121B     		subs	r2, r2, r4
 158 0064 102A     		cmp	r2, #16
 159 0066 0CD9     		bls	.L10
 177:FreeRTOS\src/heap_2.c **** 
 160              		.loc 1 177 0
 161 0068 1E19     		adds	r6, r3, r4
 162              	.LVL15:
 181:FreeRTOS\src/heap_2.c **** 					pxBlock->xBlockSize = xWantedSize;
 163              		.loc 1 181 0
ARM GAS  C:\Users\nicol\AppData\Local\Temp\ccWDhUc9.s 			page 9


 164 006a 7260     		str	r2, [r6, #4]
 182:FreeRTOS\src/heap_2.c **** 
 165              		.loc 1 182 0
 166 006c 5C60     		str	r4, [r3, #4]
 167              	.LBB2:
 185:FreeRTOS\src/heap_2.c **** 				}
 168              		.loc 1 185 0
 169 006e 7468     		ldr	r4, [r6, #4]
 170              	.LVL16:
 171 0070 0C49     		ldr	r1, .L17+8
 172              	.LVL17:
 173 0072 00E0     		b	.L11
 174              	.LVL18:
 175              	.L15:
 176 0074 1146     		mov	r1, r2
 177              	.LVL19:
 178              	.L11:
 185:FreeRTOS\src/heap_2.c **** 				}
 179              		.loc 1 185 0 is_stmt 0 discriminator 1
 180 0076 0A68     		ldr	r2, [r1]
 181 0078 5068     		ldr	r0, [r2, #4]
 182 007a 8442     		cmp	r4, r0
 183 007c FAD8     		bhi	.L15
 185:FreeRTOS\src/heap_2.c **** 				}
 184              		.loc 1 185 0 discriminator 4
 185 007e 3260     		str	r2, [r6]
 186              	.LVL20:
 187 0080 0E60     		str	r6, [r1]
 188              	.LVL21:
 189              	.L10:
 190              	.LBE2:
 188:FreeRTOS\src/heap_2.c **** 			}
 191              		.loc 1 188 0 is_stmt 1
 192 0082 5968     		ldr	r1, [r3, #4]
 193 0084 084A     		ldr	r2, .L17+12
 194 0086 1368     		ldr	r3, [r2]
 195              	.LVL22:
 196 0088 5B1A     		subs	r3, r3, r1
 197 008a 1360     		str	r3, [r2]
 198 008c 02E0     		b	.L7
 199              	.LVL23:
 200              	.L12:
 122:FreeRTOS\src/heap_2.c **** 
 201              		.loc 1 122 0
 202 008e 0025     		movs	r5, #0
 203 0090 00E0     		b	.L7
 204              	.LVL24:
 205              	.L14:
 206 0092 0025     		movs	r5, #0
 207              	.LVL25:
 208              	.L7:
 194:FreeRTOS\src/heap_2.c **** 
 209              		.loc 1 194 0
 210 0094 FFF7FEFF 		bl	xTaskResumeAll
 211              	.LVL26:
 207:FreeRTOS\src/heap_2.c **** /*-----------------------------------------------------------*/
 212              		.loc 1 207 0
ARM GAS  C:\Users\nicol\AppData\Local\Temp\ccWDhUc9.s 			page 10


 213 0098 2846     		mov	r0, r5
 214 009a 70BD     		pop	{r4, r5, r6, pc}
 215              	.LVL27:
 216              	.L18:
 217              		.align	2
 218              	.L17:
 219 009c C8760000 		.word	.LANCHOR1
 220 00a0 08800000 		.word	.LANCHOR1+2368
 221 00a4 00800000 		.word	.LANCHOR1+2360
 222 00a8 00000000 		.word	.LANCHOR2
 223              		.cfi_endproc
 224              	.LFE5:
 225              		.size	pvPortMalloc, .-pvPortMalloc
 226              		.section	.text.vPortFree,"ax",%progbits
 227              		.align	2
 228              		.global	vPortFree
 229              		.thumb
 230              		.thumb_func
 231              		.type	vPortFree, %function
 232              	vPortFree:
 233              	.LFB6:
 211:FreeRTOS\src/heap_2.c **** uint8_t *puc = ( uint8_t * ) pv;
 234              		.loc 1 211 0
 235              		.cfi_startproc
 236              		@ args = 0, pretend = 0, frame = 0
 237              		@ frame_needed = 0, uses_anonymous_args = 0
 238              	.LVL28:
 215:FreeRTOS\src/heap_2.c **** 	{
 239              		.loc 1 215 0
 240 0000 D0B1     		cbz	r0, .L24
 211:FreeRTOS\src/heap_2.c **** uint8_t *puc = ( uint8_t * ) pv;
 241              		.loc 1 211 0
 242 0002 70B5     		push	{r4, r5, r6, lr}
 243              		.cfi_def_cfa_offset 16
 244              		.cfi_offset 4, -16
 245              		.cfi_offset 5, -12
 246              		.cfi_offset 6, -8
 247              		.cfi_offset 14, -4
 248 0004 0546     		mov	r5, r0
 219:FreeRTOS\src/heap_2.c **** 
 249              		.loc 1 219 0
 250 0006 A0F10806 		sub	r6, r0, #8
 251              	.LVL29:
 225:FreeRTOS\src/heap_2.c **** 		{
 252              		.loc 1 225 0
 253 000a FFF7FEFF 		bl	vTaskSuspendAll
 254              	.LVL30:
 255              	.LBB3:
 228:FreeRTOS\src/heap_2.c **** 			xFreeBytesRemaining += pxLink->xBlockSize;
 256              		.loc 1 228 0
 257 000e 55F8044C 		ldr	r4, [r5, #-4]
 258              	.LVL31:
 259 0012 0A4A     		ldr	r2, .L25
 260 0014 00E0     		b	.L21
 261              	.LVL32:
 262              	.L22:
 263 0016 1A46     		mov	r2, r3
ARM GAS  C:\Users\nicol\AppData\Local\Temp\ccWDhUc9.s 			page 11


 264              	.LVL33:
 265              	.L21:
 228:FreeRTOS\src/heap_2.c **** 			xFreeBytesRemaining += pxLink->xBlockSize;
 266              		.loc 1 228 0 is_stmt 0 discriminator 1
 267 0018 1368     		ldr	r3, [r2]
 268 001a 5968     		ldr	r1, [r3, #4]
 269 001c 8C42     		cmp	r4, r1
 270 001e FAD8     		bhi	.L22
 228:FreeRTOS\src/heap_2.c **** 			xFreeBytesRemaining += pxLink->xBlockSize;
 271              		.loc 1 228 0 discriminator 4
 272 0020 45F8083C 		str	r3, [r5, #-8]
 273 0024 1660     		str	r6, [r2]
 274              	.LBE3:
 229:FreeRTOS\src/heap_2.c **** 			traceFREE( pv, pxLink->xBlockSize );
 275              		.loc 1 229 0 is_stmt 1 discriminator 4
 276 0026 55F8043C 		ldr	r3, [r5, #-4]
 277 002a 054A     		ldr	r2, .L25+4
 278              	.LVL34:
 279 002c 1168     		ldr	r1, [r2]
 280 002e 0B44     		add	r3, r3, r1
 281 0030 1360     		str	r3, [r2]
 232:FreeRTOS\src/heap_2.c **** 	}
 282              		.loc 1 232 0 discriminator 4
 283 0032 FFF7FEFF 		bl	xTaskResumeAll
 284              	.LVL35:
 285 0036 70BD     		pop	{r4, r5, r6, pc}
 286              	.LVL36:
 287              	.L24:
 288              		.cfi_def_cfa_offset 0
 289              		.cfi_restore 4
 290              		.cfi_restore 5
 291              		.cfi_restore 6
 292              		.cfi_restore 14
 293 0038 7047     		bx	lr
 294              	.L26:
 295 003a 00BF     		.align	2
 296              	.L25:
 297 003c 00800000 		.word	.LANCHOR1+2360
 298 0040 00000000 		.word	.LANCHOR2
 299              		.cfi_endproc
 300              	.LFE6:
 301              		.size	vPortFree, .-vPortFree
 302              		.section	.text.xPortGetFreeHeapSize,"ax",%progbits
 303              		.align	2
 304              		.global	xPortGetFreeHeapSize
 305              		.thumb
 306              		.thumb_func
 307              		.type	xPortGetFreeHeapSize, %function
 308              	xPortGetFreeHeapSize:
 309              	.LFB7:
 238:FreeRTOS\src/heap_2.c **** 	return xFreeBytesRemaining;
 310              		.loc 1 238 0
 311              		.cfi_startproc
 312              		@ args = 0, pretend = 0, frame = 0
 313              		@ frame_needed = 0, uses_anonymous_args = 0
 314              		@ link register save eliminated.
 240:FreeRTOS\src/heap_2.c **** /*-----------------------------------------------------------*/
ARM GAS  C:\Users\nicol\AppData\Local\Temp\ccWDhUc9.s 			page 12


 315              		.loc 1 240 0
 316 0000 014B     		ldr	r3, .L28
 317 0002 1868     		ldr	r0, [r3]
 318 0004 7047     		bx	lr
 319              	.L29:
 320 0006 00BF     		.align	2
 321              	.L28:
 322 0008 00000000 		.word	.LANCHOR2
 323              		.cfi_endproc
 324              	.LFE7:
 325              		.size	xPortGetFreeHeapSize, .-xPortGetFreeHeapSize
 326              		.section	.text.vPortInitialiseBlocks,"ax",%progbits
 327              		.align	2
 328              		.global	vPortInitialiseBlocks
 329              		.thumb
 330              		.thumb_func
 331              		.type	vPortInitialiseBlocks, %function
 332              	vPortInitialiseBlocks:
 333              	.LFB8:
 244:FreeRTOS\src/heap_2.c **** 	/* This just exists to keep the linker quiet. */
 334              		.loc 1 244 0
 335              		.cfi_startproc
 336              		@ args = 0, pretend = 0, frame = 0
 337              		@ frame_needed = 0, uses_anonymous_args = 0
 338              		@ link register save eliminated.
 339 0000 7047     		bx	lr
 340              		.cfi_endproc
 341              	.LFE8:
 342              		.size	vPortInitialiseBlocks, .-vPortInitialiseBlocks
 343 0002 00BF     		.data
 344              		.align	2
 345              		.set	.LANCHOR2,. + 0
 346              		.type	xFreeBytesRemaining, %object
 347              		.size	xFreeBytesRemaining, 4
 348              	xFreeBytesRemaining:
 349 0000 F87F0000 		.word	32760
 350              		.bss
 351              		.align	2
 352              		.set	.LANCHOR0,. + 0
 353              		.set	.LANCHOR1,. + 30408
 354              		.type	ucHeap, %object
 355              		.size	ucHeap, 32768
 356              	ucHeap:
 357 0000 00000000 		.space	32768
 357      00000000 
 357      00000000 
 357      00000000 
 357      00000000 
 358              		.type	xStart, %object
 359              		.size	xStart, 8
 360              	xStart:
 361 8000 00000000 		.space	8
 361      00000000 
 362              		.type	xEnd, %object
 363              		.size	xEnd, 8
 364              	xEnd:
 365 8008 00000000 		.space	8
ARM GAS  C:\Users\nicol\AppData\Local\Temp\ccWDhUc9.s 			page 13


 365      00000000 
 366              		.type	xHeapHasBeenInitialised.5160, %object
 367              		.size	xHeapHasBeenInitialised.5160, 4
 368              	xHeapHasBeenInitialised.5160:
 369 8010 00000000 		.space	4
 370              		.text
 371              	.Letext0:
 372              		.file 2 "d:\\cypress\\psoc creator\\4.4\\psoc creator\\import\\gnu\\arm\\5.4.1\\lib\\gcc\\arm-none
 373              		.file 3 "d:\\cypress\\psoc creator\\4.4\\psoc creator\\import\\gnu\\arm\\5.4.1\\arm-none-eabi\\inc
 374              		.file 4 "d:\\cypress\\psoc creator\\4.4\\psoc creator\\import\\gnu\\arm\\5.4.1\\arm-none-eabi\\inc
 375              		.file 5 ".\\FreeRTOS\\include/portmacro.h"
 376              		.file 6 ".\\FreeRTOS\\include/task.h"