ARM GAS  C:\Users\nicol\AppData\Local\Temp\ccYYDSph.s 			page 1


   1              		.syntax unified
   2              		.cpu cortex-m3
   3              		.fpu softvfp
   4              		.eabi_attribute 20, 1
   5              		.eabi_attribute 21, 1
   6              		.eabi_attribute 23, 3
   7              		.eabi_attribute 24, 1
   8              		.eabi_attribute 25, 1
   9              		.eabi_attribute 26, 1
  10              		.eabi_attribute 30, 1
  11              		.eabi_attribute 34, 1
  12              		.eabi_attribute 18, 4
  13              		.thumb
  14              		.syntax unified
  15              		.file	"main.c"
  16              		.text
  17              	.Ltext0:
  18              		.cfi_sections	.debug_frame
  19              		.section	.text.freeRTOSInit,"ax",%progbits
  20              		.align	2
  21              		.thumb
  22              		.thumb_func
  23              		.type	freeRTOSInit, %function
  24              	freeRTOSInit:
  25              	.LFB69:
  26              		.file 1 "main.c"
   1:main.c        **** /* ========================================
   2:main.c        ****  *
   3:main.c        ****  *              ELECH410 labs
   4:main.c        ****  *          FreeRTOS example code
   5:main.c        ****  * 
   6:main.c        ****  *                   2019
   7:main.c        ****  *
   8:main.c        ****  * ========================================
   9:main.c        **** */
  10:main.c        **** #include "project.h"
  11:main.c        **** 
  12:main.c        **** /* RTOS includes. */
  13:main.c        **** #include "FreeRTOS.h"
  14:main.c        **** #include "task.h"
  15:main.c        **** #include "timers.h"
  16:main.c        **** #include "queue.h"
  17:main.c        **** #include "semphr.h"
  18:main.c        **** 
  19:main.c        **** #define READ(name) name##_##Read()
  20:main.c        **** #define WRITE(name,v) name##_##Write(v)
  21:main.c        **** #define ANALYZE(name) WRITE(name,(READ(name)+1)%2);
  22:main.c        **** 
  23:main.c        **** 
  24:main.c        **** #define TASK_STACK_SIZE      (1024)
  25:main.c        **** 
  26:main.c        **** /* Task definitions */
  27:main.c        **** #define BLINKY_NAME           ("Blinky")
  28:main.c        **** #define BLINKY_PRIORITY       (3)
  29:main.c        **** #define BLINKY_PERIOD         (1000) // ticks
  30:main.c        **** 
  31:main.c        **** /* Task prototypes */
ARM GAS  C:\Users\nicol\AppData\Local\Temp\ccYYDSph.s 			page 2


  32:main.c        **** void blinkyTask( void * );
  33:main.c        **** void blinkyTask2(void *);
  34:main.c        **** 
  35:main.c        **** /* Task handlers */
  36:main.c        **** TaskHandle_t blinkyHandler;
  37:main.c        **** 
  38:main.c        **** /* Function prototypes */
  39:main.c        **** /*
  40:main.c        ****  * Installs the RTOS interrupt handlers.
  41:main.c        ****  */
  42:main.c        **** static void freeRTOSInit( void );
  43:main.c        **** 
  44:main.c        **** int main(void)
  45:main.c        **** {
  46:main.c        ****     /* Enable global interrupts. */
  47:main.c        ****     CyGlobalIntEnable; 
  48:main.c        **** 
  49:main.c        ****     freeRTOSInit();
  50:main.c        ****     
  51:main.c        ****     /* Place your initialization/startup code here (e.g. MyInst_Start()) */
  52:main.c        ****     // ...
  53:main.c        ****     
  54:main.c        ****     // Create tasks
  55:main.c        ****     xTaskCreate( blinkyTask, BLINKY_NAME, TASK_STACK_SIZE, NULL, BLINKY_PRIORITY, &blinkyHandler );
  56:main.c        ****     xTaskCreate( blinkyTask2, ("Blinky2"), TASK_STACK_SIZE, NULL, BLINKY_PRIORITY, &blinkyHandler);
  57:main.c        ****     
  58:main.c        ****     // Launch freeRTOS
  59:main.c        ****     vTaskStartScheduler();     
  60:main.c        ****     
  61:main.c        ****     for(;;)
  62:main.c        ****     {
  63:main.c        ****     }
  64:main.c        **** }
  65:main.c        **** 
  66:main.c        **** void freeRTOSInit( void )
  67:main.c        **** {
  27              		.loc 1 67 0
  28              		.cfi_startproc
  29              		@ args = 0, pretend = 0, frame = 0
  30              		@ frame_needed = 0, uses_anonymous_args = 0
  31              		@ link register save eliminated.
  68:main.c        **** /* Port layer functions that need to be copied into the vector table. */
  69:main.c        **** extern void xPortPendSVHandler( void );
  70:main.c        **** extern void xPortSysTickHandler( void );
  71:main.c        **** extern void vPortSVCHandler( void );
  72:main.c        **** extern cyisraddress CyRamVectors[];
  73:main.c        **** 
  74:main.c        **** 	/* Install the OS Interrupt Handlers. */
  75:main.c        **** 	CyRamVectors[ 11 ] = ( cyisraddress ) vPortSVCHandler;
  32              		.loc 1 75 0
  33 0000 034B     		ldr	r3, .L2
  34 0002 044A     		ldr	r2, .L2+4
  35 0004 DA62     		str	r2, [r3, #44]
  76:main.c        **** 	CyRamVectors[ 14 ] = ( cyisraddress ) xPortPendSVHandler;
  36              		.loc 1 76 0
  37 0006 044A     		ldr	r2, .L2+8
  38 0008 9A63     		str	r2, [r3, #56]
ARM GAS  C:\Users\nicol\AppData\Local\Temp\ccYYDSph.s 			page 3


  77:main.c        **** 	CyRamVectors[ 15 ] = ( cyisraddress ) xPortSysTickHandler;
  39              		.loc 1 77 0
  40 000a 044A     		ldr	r2, .L2+12
  41 000c DA63     		str	r2, [r3, #60]
  42 000e 7047     		bx	lr
  43              	.L3:
  44              		.align	2
  45              	.L2:
  46 0010 00000000 		.word	CyRamVectors
  47 0014 00000000 		.word	vPortSVCHandler
  48 0018 00000000 		.word	xPortPendSVHandler
  49 001c 00000000 		.word	xPortSysTickHandler
  50              		.cfi_endproc
  51              	.LFE69:
  52              		.size	freeRTOSInit, .-freeRTOSInit
  53              		.section	.text.blinkyTask,"ax",%progbits
  54              		.align	2
  55              		.global	blinkyTask
  56              		.thumb
  57              		.thumb_func
  58              		.type	blinkyTask, %function
  59              	blinkyTask:
  60              	.LFB70:
  78:main.c        **** }
  79:main.c        **** 
  80:main.c        **** void blinkyTask( void *arg )
  81:main.c        **** {
  61              		.loc 1 81 0
  62              		.cfi_startproc
  63              		@ Volatile: function does not return.
  64              		@ args = 0, pretend = 0, frame = 0
  65              		@ frame_needed = 0, uses_anonymous_args = 0
  66              	.LVL0:
  67 0000 08B5     		push	{r3, lr}
  68              		.cfi_def_cfa_offset 8
  69              		.cfi_offset 3, -8
  70              		.cfi_offset 14, -4
  71              	.LVL1:
  72              	.L6:
  82:main.c        ****     (void)arg;
  83:main.c        ****     
  84:main.c        ****     for(;;)
  85:main.c        ****     {
  86:main.c        ****         vTaskDelay(BLINKY_PERIOD);
  73              		.loc 1 86 0 discriminator 1
  74 0002 4FF47A70 		mov	r0, #1000
  75 0006 FFF7FEFF 		bl	vTaskDelay
  76              	.LVL2:
  87:main.c        ****         
  88:main.c        ****         ANALYZE(LED1)
  77              		.loc 1 88 0 discriminator 1
  78 000a FFF7FEFF 		bl	LED1_Read
  79              	.LVL3:
  80 000e 0130     		adds	r0, r0, #1
  81 0010 054B     		ldr	r3, .L8
  82 0012 1840     		ands	r0, r0, r3
  83 0014 03D5     		bpl	.L5
ARM GAS  C:\Users\nicol\AppData\Local\Temp\ccYYDSph.s 			page 4


  84 0016 0138     		subs	r0, r0, #1
  85 0018 60F00100 		orn	r0, r0, #1
  86 001c 0130     		adds	r0, r0, #1
  87              	.L5:
  88 001e C0B2     		uxtb	r0, r0
  89 0020 FFF7FEFF 		bl	LED1_Write
  90              	.LVL4:
  91 0024 EDE7     		b	.L6
  92              	.L9:
  93 0026 00BF     		.align	2
  94              	.L8:
  95 0028 01000080 		.word	-2147483647
  96              		.cfi_endproc
  97              	.LFE70:
  98              		.size	blinkyTask, .-blinkyTask
  99              		.section	.text.blinkyTask2,"ax",%progbits
 100              		.align	2
 101              		.global	blinkyTask2
 102              		.thumb
 103              		.thumb_func
 104              		.type	blinkyTask2, %function
 105              	blinkyTask2:
 106              	.LFB71:
  89:main.c        ****         
  90:main.c        ****         
  91:main.c        ****     }
  92:main.c        **** }
  93:main.c        **** 
  94:main.c        **** void blinkyTask2(void *arg){
 107              		.loc 1 94 0
 108              		.cfi_startproc
 109              		@ Volatile: function does not return.
 110              		@ args = 0, pretend = 0, frame = 0
 111              		@ frame_needed = 0, uses_anonymous_args = 0
 112              	.LVL5:
 113 0000 08B5     		push	{r3, lr}
 114              		.cfi_def_cfa_offset 8
 115              		.cfi_offset 3, -8
 116              		.cfi_offset 14, -4
 117              	.LVL6:
 118              	.L12:
  95:main.c        ****     (void) arg;
  96:main.c        ****     
  97:main.c        ****     for(;;){
  98:main.c        ****         vTaskDelay(BLINKY_PERIOD/2);
 119              		.loc 1 98 0 discriminator 1
 120 0002 4FF4FA70 		mov	r0, #500
 121 0006 FFF7FEFF 		bl	vTaskDelay
 122              	.LVL7:
  99:main.c        ****         
 100:main.c        ****         ANALYZE(LED2);
 123              		.loc 1 100 0 discriminator 1
 124 000a FFF7FEFF 		bl	LED2_Read
 125              	.LVL8:
 126 000e 0130     		adds	r0, r0, #1
 127 0010 054B     		ldr	r3, .L14
 128 0012 1840     		ands	r0, r0, r3
ARM GAS  C:\Users\nicol\AppData\Local\Temp\ccYYDSph.s 			page 5


 129 0014 03D5     		bpl	.L11
 130 0016 0138     		subs	r0, r0, #1
 131 0018 60F00100 		orn	r0, r0, #1
 132 001c 0130     		adds	r0, r0, #1
 133              	.L11:
 134 001e C0B2     		uxtb	r0, r0
 135 0020 FFF7FEFF 		bl	LED2_Write
 136              	.LVL9:
 137 0024 EDE7     		b	.L12
 138              	.L15:
 139 0026 00BF     		.align	2
 140              	.L14:
 141 0028 01000080 		.word	-2147483647
 142              		.cfi_endproc
 143              	.LFE71:
 144              		.size	blinkyTask2, .-blinkyTask2
 145              		.section	.text.main,"ax",%progbits
 146              		.align	2
 147              		.global	main
 148              		.thumb
 149              		.thumb_func
 150              		.type	main, %function
 151              	main:
 152              	.LFB68:
  45:main.c        ****     /* Enable global interrupts. */
 153              		.loc 1 45 0
 154              		.cfi_startproc
 155              		@ Volatile: function does not return.
 156              		@ args = 0, pretend = 0, frame = 0
 157              		@ frame_needed = 0, uses_anonymous_args = 0
 158 0000 00B5     		push	{lr}
 159              		.cfi_def_cfa_offset 4
 160              		.cfi_offset 14, -4
 161 0002 83B0     		sub	sp, sp, #12
 162              		.cfi_def_cfa_offset 16
  47:main.c        **** 
 163              		.loc 1 47 0
 164              		.syntax unified
 165              	@ 47 "main.c" 1
 166 0004 62B6     		CPSIE   i
 167              	@ 0 "" 2
  49:main.c        ****     
 168              		.loc 1 49 0
 169              		.thumb
 170              		.syntax unified
 171 0006 FFF7FEFF 		bl	freeRTOSInit
 172              	.LVL10:
  55:main.c        ****     xTaskCreate( blinkyTask2, ("Blinky2"), TASK_STACK_SIZE, NULL, BLINKY_PRIORITY, &blinkyHandler);
 173              		.loc 1 55 0
 174 000a 0B4D     		ldr	r5, .L19
 175 000c 0195     		str	r5, [sp, #4]
 176 000e 0324     		movs	r4, #3
 177 0010 0094     		str	r4, [sp]
 178 0012 0023     		movs	r3, #0
 179 0014 4FF48062 		mov	r2, #1024
 180 0018 0849     		ldr	r1, .L19+4
 181 001a 0948     		ldr	r0, .L19+8
ARM GAS  C:\Users\nicol\AppData\Local\Temp\ccYYDSph.s 			page 6


 182 001c FFF7FEFF 		bl	xTaskCreate
 183              	.LVL11:
  56:main.c        ****     
 184              		.loc 1 56 0
 185 0020 0195     		str	r5, [sp, #4]
 186 0022 0094     		str	r4, [sp]
 187 0024 0023     		movs	r3, #0
 188 0026 4FF48062 		mov	r2, #1024
 189 002a 0649     		ldr	r1, .L19+12
 190 002c 0648     		ldr	r0, .L19+16
 191 002e FFF7FEFF 		bl	xTaskCreate
 192              	.LVL12:
  59:main.c        ****     
 193              		.loc 1 59 0
 194 0032 FFF7FEFF 		bl	vTaskStartScheduler
 195              	.LVL13:
 196              	.L17:
 197 0036 FEE7     		b	.L17
 198              	.L20:
 199              		.align	2
 200              	.L19:
 201 0038 00000000 		.word	blinkyHandler
 202 003c 00000000 		.word	.LC0
 203 0040 00000000 		.word	blinkyTask
 204 0044 08000000 		.word	.LC1
 205 0048 00000000 		.word	blinkyTask2
 206              		.cfi_endproc
 207              	.LFE68:
 208              		.size	main, .-main
 209              		.comm	blinkyHandler,4,4
 210              		.section	.rodata.str1.4,"aMS",%progbits,1
 211              		.align	2
 212              	.LC0:
 213 0000 426C696E 		.ascii	"Blinky\000"
 213      6B7900
 214 0007 00       		.space	1
 215              	.LC1:
 216 0008 426C696E 		.ascii	"Blinky2\000"
 216      6B793200 
 217              		.text
 218              	.Letext0:
 219              		.file 2 "d:\\cypress\\psoc creator\\4.4\\psoc creator\\import\\gnu\\arm\\5.4.1\\arm-none-eabi\\inc
 220              		.file 3 "d:\\cypress\\psoc creator\\4.4\\psoc creator\\import\\gnu\\arm\\5.4.1\\arm-none-eabi\\inc
 221              		.file 4 "Generated_Source\\PSoC5/cytypes.h"
 222              		.file 5 ".\\FreeRTOS\\include/task.h"
 223              		.file 6 "Generated_Source\\PSoC5/core_cm3.h"
 224              		.file 7 "Generated_Source\\PSoC5/LED1.h"
 225              		.file 8 "Generated_Source\\PSoC5/LED2.h"