ARM GAS  C:\Users\nicol\AppData\Local\Temp\ccMfK96b.s 			page 1


   1              		.syntax unified
   2              		.cpu cortex-m3
   3              		.fpu softvfp
   4              		.eabi_attribute 20, 1
   5              		.eabi_attribute 21, 1
   6              		.eabi_attribute 23, 3
   7              		.eabi_attribute 24, 1
   8              		.eabi_attribute 25, 1
   9              		.eabi_attribute 26, 1
  10              		.eabi_attribute 30, 1
  11              		.eabi_attribute 34, 1
  12              		.eabi_attribute 18, 4
  13              		.thumb
  14              		.syntax unified
  15              		.file	"keyboard_keyboard.c"
  16              		.text
  17              	.Ltext0:
  18              		.cfi_sections	.debug_frame
  19              		.section	.text.keyboard_Test,"ax",%progbits
  20              		.align	2
  21              		.global	keyboard_Test
  22              		.thumb
  23              		.thumb_func
  24              		.type	keyboard_Test, %function
  25              	keyboard_Test:
  26              	.LFB0:
  27              		.file 1 "Generated_Source\\PSoC5\\keyboard_keyboard.c"
   1:Generated_Source\PSoC5/keyboard_keyboard.c **** /* ========================================
   2:Generated_Source\PSoC5/keyboard_keyboard.c ****  *
   3:Generated_Source\PSoC5/keyboard_keyboard.c ****  * Copyright YOUR COMPANY, THE YEAR
   4:Generated_Source\PSoC5/keyboard_keyboard.c ****  * All Rights Reserved
   5:Generated_Source\PSoC5/keyboard_keyboard.c ****  * UNPUBLISHED, LICENSED SOFTWARE.
   6:Generated_Source\PSoC5/keyboard_keyboard.c ****  *
   7:Generated_Source\PSoC5/keyboard_keyboard.c ****  * CONFIDENTIAL AND PROPRIETARY INFORMATION
   8:Generated_Source\PSoC5/keyboard_keyboard.c ****  * WHICH IS THE PROPERTY OF your company.
   9:Generated_Source\PSoC5/keyboard_keyboard.c ****  *
  10:Generated_Source\PSoC5/keyboard_keyboard.c ****  * ========================================
  11:Generated_Source\PSoC5/keyboard_keyboard.c **** */
  12:Generated_Source\PSoC5/keyboard_keyboard.c **** 
  13:Generated_Source\PSoC5/keyboard_keyboard.c **** #include "CyLib.h"
  14:Generated_Source\PSoC5/keyboard_keyboard.c **** 
  15:Generated_Source\PSoC5/keyboard_keyboard.c **** //#include "keyboard_KeyboardPort.h"
  16:Generated_Source\PSoC5/keyboard_keyboard.c **** //#include "keyboard_KeyboardCol0.h"
  17:Generated_Source\PSoC5/keyboard_keyboard.c **** #include "keyboard_KeyboardCol1.h"
  18:Generated_Source\PSoC5/keyboard_keyboard.c **** #include "keyboard_KeyboardCol2.h"
  19:Generated_Source\PSoC5/keyboard_keyboard.c **** #include "keyboard_KeyboardCol3.h"
  20:Generated_Source\PSoC5/keyboard_keyboard.c **** 
  21:Generated_Source\PSoC5/keyboard_keyboard.c **** #include "keyboard_KeyboardRow0.h"
  22:Generated_Source\PSoC5/keyboard_keyboard.c **** #include "keyboard_KeyboardRow1.h"
  23:Generated_Source\PSoC5/keyboard_keyboard.c **** #include "keyboard_KeyboardRow2.h"
  24:Generated_Source\PSoC5/keyboard_keyboard.c **** #include "keyboard_KeyboardRow3.h"
  25:Generated_Source\PSoC5/keyboard_keyboard.c **** 
  26:Generated_Source\PSoC5/keyboard_keyboard.c **** //#define LED_Write keyboard_KeyboardPort_Write
  27:Generated_Source\PSoC5/keyboard_keyboard.c **** 
  28:Generated_Source\PSoC5/keyboard_keyboard.c **** //#define COL0_Write keyboard_KeyboardCol0_Write
  29:Generated_Source\PSoC5/keyboard_keyboard.c **** #define COL1_Write keyboard_KeyboardCol1_Write
  30:Generated_Source\PSoC5/keyboard_keyboard.c **** #define COL2_Write keyboard_KeyboardCol2_Write
ARM GAS  C:\Users\nicol\AppData\Local\Temp\ccMfK96b.s 			page 2


  31:Generated_Source\PSoC5/keyboard_keyboard.c **** #define COL3_Write keyboard_KeyboardCol3_Write
  32:Generated_Source\PSoC5/keyboard_keyboard.c **** 
  33:Generated_Source\PSoC5/keyboard_keyboard.c **** #define ROW0_Read keyboard_KeyboardRow0_Read
  34:Generated_Source\PSoC5/keyboard_keyboard.c **** #define ROW1_Read keyboard_KeyboardRow1_Read
  35:Generated_Source\PSoC5/keyboard_keyboard.c **** #define ROW2_Read keyboard_KeyboardRow2_Read
  36:Generated_Source\PSoC5/keyboard_keyboard.c **** #define ROW3_Read keyboard_KeyboardRow3_Read
  37:Generated_Source\PSoC5/keyboard_keyboard.c **** 
  38:Generated_Source\PSoC5/keyboard_keyboard.c **** #define KBD_DELAY   5
  39:Generated_Source\PSoC5/keyboard_keyboard.c **** 
  40:Generated_Source\PSoC5/keyboard_keyboard.c **** void keyboard_Test(void){
  28              		.loc 1 40 0
  29              		.cfi_startproc
  30              		@ args = 0, pretend = 0, frame = 0
  31              		@ frame_needed = 0, uses_anonymous_args = 0
  32              		@ link register save eliminated.
  33 0000 7047     		bx	lr
  34              		.cfi_endproc
  35              	.LFE0:
  36              		.size	keyboard_Test, .-keyboard_Test
  37 0002 00BF     		.section	.text.keyboard_Start,"ax",%progbits
  38              		.align	2
  39              		.global	keyboard_Start
  40              		.thumb
  41              		.thumb_func
  42              		.type	keyboard_Start, %function
  43              	keyboard_Start:
  44              	.LFB1:
  41:Generated_Source\PSoC5/keyboard_keyboard.c ****     //LED_Write(1);
  42:Generated_Source\PSoC5/keyboard_keyboard.c ****     //Kb_KeaboardPort_Write(1);
  43:Generated_Source\PSoC5/keyboard_keyboard.c **** }
  44:Generated_Source\PSoC5/keyboard_keyboard.c **** 
  45:Generated_Source\PSoC5/keyboard_keyboard.c **** void keyboard_Start(void){
  45              		.loc 1 45 0
  46              		.cfi_startproc
  47              		@ args = 0, pretend = 0, frame = 0
  48              		@ frame_needed = 0, uses_anonymous_args = 0
  49              		.loc 1 45 0
  50 0000 08B5     		push	{r3, lr}
  51              		.cfi_def_cfa_offset 8
  52              		.cfi_offset 3, -8
  53              		.cfi_offset 14, -4
  46:Generated_Source\PSoC5/keyboard_keyboard.c ****     COL1_Write(1);
  54              		.loc 1 46 0
  55 0002 0120     		movs	r0, #1
  56 0004 FFF7FEFF 		bl	keyboard_KeyboardCol1_Write
  57              	.LVL0:
  47:Generated_Source\PSoC5/keyboard_keyboard.c ****     COL2_Write(1);
  58              		.loc 1 47 0
  59 0008 0120     		movs	r0, #1
  60 000a FFF7FEFF 		bl	keyboard_KeyboardCol2_Write
  61              	.LVL1:
  48:Generated_Source\PSoC5/keyboard_keyboard.c ****     COL3_Write(1);
  62              		.loc 1 48 0
  63 000e 0120     		movs	r0, #1
  64 0010 FFF7FEFF 		bl	keyboard_KeyboardCol3_Write
  65              	.LVL2:
  66 0014 08BD     		pop	{r3, pc}
ARM GAS  C:\Users\nicol\AppData\Local\Temp\ccMfK96b.s 			page 3


  67              		.cfi_endproc
  68              	.LFE1:
  69              		.size	keyboard_Start, .-keyboard_Start
  70 0016 00BF     		.section	.text.keyboard_Scan,"ax",%progbits
  71              		.align	2
  72              		.global	keyboard_Scan
  73              		.thumb
  74              		.thumb_func
  75              		.type	keyboard_Scan, %function
  76              	keyboard_Scan:
  77              	.LFB2:
  49:Generated_Source\PSoC5/keyboard_keyboard.c **** }
  50:Generated_Source\PSoC5/keyboard_keyboard.c **** 
  51:Generated_Source\PSoC5/keyboard_keyboard.c **** uint8_t keyboard_Scan(void){
  78              		.loc 1 51 0
  79              		.cfi_startproc
  80              		@ args = 0, pretend = 0, frame = 0
  81              		@ frame_needed = 0, uses_anonymous_args = 0
  82 0000 08B5     		push	{r3, lr}
  83              		.cfi_def_cfa_offset 8
  84              		.cfi_offset 3, -8
  85              		.cfi_offset 14, -4
  52:Generated_Source\PSoC5/keyboard_keyboard.c ****     COL1_Write(0);
  86              		.loc 1 52 0
  87 0002 0020     		movs	r0, #0
  88 0004 FFF7FEFF 		bl	keyboard_KeyboardCol1_Write
  89              	.LVL3:
  53:Generated_Source\PSoC5/keyboard_keyboard.c ****     CyDelay(KBD_DELAY);
  90              		.loc 1 53 0
  91 0008 0520     		movs	r0, #5
  92 000a FFF7FEFF 		bl	CyDelay
  93              	.LVL4:
  54:Generated_Source\PSoC5/keyboard_keyboard.c ****     if (!ROW0_Read()) {
  94              		.loc 1 54 0
  95 000e FFF7FEFF 		bl	keyboard_KeyboardRow0_Read
  96              	.LVL5:
  97 0012 20B9     		cbnz	r0, .L5
  55:Generated_Source\PSoC5/keyboard_keyboard.c ****         COL1_Write(1);
  98              		.loc 1 55 0
  99 0014 0120     		movs	r0, #1
 100 0016 FFF7FEFF 		bl	keyboard_KeyboardCol1_Write
 101              	.LVL6:
  56:Generated_Source\PSoC5/keyboard_keyboard.c ****         return('#');
 102              		.loc 1 56 0
 103 001a 2320     		movs	r0, #35
 104 001c 08BD     		pop	{r3, pc}
 105              	.L5:
  57:Generated_Source\PSoC5/keyboard_keyboard.c ****     }
  58:Generated_Source\PSoC5/keyboard_keyboard.c ****     if (!ROW1_Read()) {
 106              		.loc 1 58 0
 107 001e FFF7FEFF 		bl	keyboard_KeyboardRow1_Read
 108              	.LVL7:
 109 0022 20B9     		cbnz	r0, .L7
  59:Generated_Source\PSoC5/keyboard_keyboard.c ****         COL1_Write(1);
 110              		.loc 1 59 0
 111 0024 0120     		movs	r0, #1
 112 0026 FFF7FEFF 		bl	keyboard_KeyboardCol1_Write
ARM GAS  C:\Users\nicol\AppData\Local\Temp\ccMfK96b.s 			page 4


 113              	.LVL8:
  60:Generated_Source\PSoC5/keyboard_keyboard.c ****         return('9');
 114              		.loc 1 60 0
 115 002a 3920     		movs	r0, #57
 116 002c 08BD     		pop	{r3, pc}
 117              	.L7:
  61:Generated_Source\PSoC5/keyboard_keyboard.c ****     }
  62:Generated_Source\PSoC5/keyboard_keyboard.c ****     if (!ROW2_Read()) {
 118              		.loc 1 62 0
 119 002e FFF7FEFF 		bl	keyboard_KeyboardRow2_Read
 120              	.LVL9:
 121 0032 20B9     		cbnz	r0, .L8
  63:Generated_Source\PSoC5/keyboard_keyboard.c ****         COL1_Write(1);
 122              		.loc 1 63 0
 123 0034 0120     		movs	r0, #1
 124 0036 FFF7FEFF 		bl	keyboard_KeyboardCol1_Write
 125              	.LVL10:
  64:Generated_Source\PSoC5/keyboard_keyboard.c ****         return('6');
 126              		.loc 1 64 0
 127 003a 3620     		movs	r0, #54
 128 003c 08BD     		pop	{r3, pc}
 129              	.L8:
  65:Generated_Source\PSoC5/keyboard_keyboard.c ****     }
  66:Generated_Source\PSoC5/keyboard_keyboard.c ****     if (!ROW3_Read()) {
 130              		.loc 1 66 0
 131 003e FFF7FEFF 		bl	keyboard_KeyboardRow3_Read
 132              	.LVL11:
 133 0042 20B9     		cbnz	r0, .L9
  67:Generated_Source\PSoC5/keyboard_keyboard.c ****         COL1_Write(1);
 134              		.loc 1 67 0
 135 0044 0120     		movs	r0, #1
 136 0046 FFF7FEFF 		bl	keyboard_KeyboardCol1_Write
 137              	.LVL12:
  68:Generated_Source\PSoC5/keyboard_keyboard.c ****         return('3');
 138              		.loc 1 68 0
 139 004a 3320     		movs	r0, #51
 140 004c 08BD     		pop	{r3, pc}
 141              	.L9:
  69:Generated_Source\PSoC5/keyboard_keyboard.c ****     }
  70:Generated_Source\PSoC5/keyboard_keyboard.c ****     COL1_Write(1);
 142              		.loc 1 70 0
 143 004e 0120     		movs	r0, #1
 144 0050 FFF7FEFF 		bl	keyboard_KeyboardCol1_Write
 145              	.LVL13:
  71:Generated_Source\PSoC5/keyboard_keyboard.c ****     
  72:Generated_Source\PSoC5/keyboard_keyboard.c ****     COL2_Write(0);
 146              		.loc 1 72 0
 147 0054 0020     		movs	r0, #0
 148 0056 FFF7FEFF 		bl	keyboard_KeyboardCol2_Write
 149              	.LVL14:
  73:Generated_Source\PSoC5/keyboard_keyboard.c ****     CyDelay(KBD_DELAY);
 150              		.loc 1 73 0
 151 005a 0520     		movs	r0, #5
 152 005c FFF7FEFF 		bl	CyDelay
 153              	.LVL15:
  74:Generated_Source\PSoC5/keyboard_keyboard.c ****     if (!ROW0_Read()) {
 154              		.loc 1 74 0
ARM GAS  C:\Users\nicol\AppData\Local\Temp\ccMfK96b.s 			page 5


 155 0060 FFF7FEFF 		bl	keyboard_KeyboardRow0_Read
 156              	.LVL16:
 157 0064 20B9     		cbnz	r0, .L10
  75:Generated_Source\PSoC5/keyboard_keyboard.c ****         COL2_Write(1);
 158              		.loc 1 75 0
 159 0066 0120     		movs	r0, #1
 160 0068 FFF7FEFF 		bl	keyboard_KeyboardCol2_Write
 161              	.LVL17:
  76:Generated_Source\PSoC5/keyboard_keyboard.c ****         return('0');
 162              		.loc 1 76 0
 163 006c 3020     		movs	r0, #48
 164 006e 08BD     		pop	{r3, pc}
 165              	.L10:
  77:Generated_Source\PSoC5/keyboard_keyboard.c ****     }
  78:Generated_Source\PSoC5/keyboard_keyboard.c ****     if (!ROW1_Read()) {
 166              		.loc 1 78 0
 167 0070 FFF7FEFF 		bl	keyboard_KeyboardRow1_Read
 168              	.LVL18:
 169 0074 20B9     		cbnz	r0, .L11
  79:Generated_Source\PSoC5/keyboard_keyboard.c ****         COL2_Write(1);
 170              		.loc 1 79 0
 171 0076 0120     		movs	r0, #1
 172 0078 FFF7FEFF 		bl	keyboard_KeyboardCol2_Write
 173              	.LVL19:
  80:Generated_Source\PSoC5/keyboard_keyboard.c ****         return('8');
 174              		.loc 1 80 0
 175 007c 3820     		movs	r0, #56
 176 007e 08BD     		pop	{r3, pc}
 177              	.L11:
  81:Generated_Source\PSoC5/keyboard_keyboard.c ****     }
  82:Generated_Source\PSoC5/keyboard_keyboard.c ****     if (!ROW2_Read()) {
 178              		.loc 1 82 0
 179 0080 FFF7FEFF 		bl	keyboard_KeyboardRow2_Read
 180              	.LVL20:
 181 0084 20B9     		cbnz	r0, .L12
  83:Generated_Source\PSoC5/keyboard_keyboard.c ****         COL2_Write(1);
 182              		.loc 1 83 0
 183 0086 0120     		movs	r0, #1
 184 0088 FFF7FEFF 		bl	keyboard_KeyboardCol2_Write
 185              	.LVL21:
  84:Generated_Source\PSoC5/keyboard_keyboard.c ****         return('5');
 186              		.loc 1 84 0
 187 008c 3520     		movs	r0, #53
 188 008e 08BD     		pop	{r3, pc}
 189              	.L12:
  85:Generated_Source\PSoC5/keyboard_keyboard.c ****     }
  86:Generated_Source\PSoC5/keyboard_keyboard.c ****     if (!ROW3_Read()) {
 190              		.loc 1 86 0
 191 0090 FFF7FEFF 		bl	keyboard_KeyboardRow3_Read
 192              	.LVL22:
 193 0094 20B9     		cbnz	r0, .L13
  87:Generated_Source\PSoC5/keyboard_keyboard.c ****         COL2_Write(1);
 194              		.loc 1 87 0
 195 0096 0120     		movs	r0, #1
 196 0098 FFF7FEFF 		bl	keyboard_KeyboardCol2_Write
 197              	.LVL23:
  88:Generated_Source\PSoC5/keyboard_keyboard.c ****         return('2');
ARM GAS  C:\Users\nicol\AppData\Local\Temp\ccMfK96b.s 			page 6


 198              		.loc 1 88 0
 199 009c 3220     		movs	r0, #50
 200 009e 08BD     		pop	{r3, pc}
 201              	.L13:
  89:Generated_Source\PSoC5/keyboard_keyboard.c ****     }
  90:Generated_Source\PSoC5/keyboard_keyboard.c ****     COL2_Write(1);
 202              		.loc 1 90 0
 203 00a0 0120     		movs	r0, #1
 204 00a2 FFF7FEFF 		bl	keyboard_KeyboardCol2_Write
 205              	.LVL24:
  91:Generated_Source\PSoC5/keyboard_keyboard.c **** 
  92:Generated_Source\PSoC5/keyboard_keyboard.c ****     COL3_Write(0);
 206              		.loc 1 92 0
 207 00a6 0020     		movs	r0, #0
 208 00a8 FFF7FEFF 		bl	keyboard_KeyboardCol3_Write
 209              	.LVL25:
  93:Generated_Source\PSoC5/keyboard_keyboard.c ****     CyDelay(KBD_DELAY);
 210              		.loc 1 93 0
 211 00ac 0520     		movs	r0, #5
 212 00ae FFF7FEFF 		bl	CyDelay
 213              	.LVL26:
  94:Generated_Source\PSoC5/keyboard_keyboard.c ****     if (!ROW0_Read()) {
 214              		.loc 1 94 0
 215 00b2 FFF7FEFF 		bl	keyboard_KeyboardRow0_Read
 216              	.LVL27:
 217 00b6 20B9     		cbnz	r0, .L14
  95:Generated_Source\PSoC5/keyboard_keyboard.c ****         COL3_Write(1);
 218              		.loc 1 95 0
 219 00b8 0120     		movs	r0, #1
 220 00ba FFF7FEFF 		bl	keyboard_KeyboardCol3_Write
 221              	.LVL28:
  96:Generated_Source\PSoC5/keyboard_keyboard.c ****         return('*');
 222              		.loc 1 96 0
 223 00be 2A20     		movs	r0, #42
 224 00c0 08BD     		pop	{r3, pc}
 225              	.L14:
  97:Generated_Source\PSoC5/keyboard_keyboard.c ****     }
  98:Generated_Source\PSoC5/keyboard_keyboard.c ****     if (!ROW1_Read()) {
 226              		.loc 1 98 0
 227 00c2 FFF7FEFF 		bl	keyboard_KeyboardRow1_Read
 228              	.LVL29:
 229 00c6 20B9     		cbnz	r0, .L15
  99:Generated_Source\PSoC5/keyboard_keyboard.c ****         COL3_Write(1);
 230              		.loc 1 99 0
 231 00c8 0120     		movs	r0, #1
 232 00ca FFF7FEFF 		bl	keyboard_KeyboardCol3_Write
 233              	.LVL30:
 100:Generated_Source\PSoC5/keyboard_keyboard.c ****         return('7');
 234              		.loc 1 100 0
 235 00ce 3720     		movs	r0, #55
 236 00d0 08BD     		pop	{r3, pc}
 237              	.L15:
 101:Generated_Source\PSoC5/keyboard_keyboard.c ****     }
 102:Generated_Source\PSoC5/keyboard_keyboard.c ****     if (!ROW2_Read()) {
 238              		.loc 1 102 0
 239 00d2 FFF7FEFF 		bl	keyboard_KeyboardRow2_Read
 240              	.LVL31:
ARM GAS  C:\Users\nicol\AppData\Local\Temp\ccMfK96b.s 			page 7


 241 00d6 20B9     		cbnz	r0, .L16
 103:Generated_Source\PSoC5/keyboard_keyboard.c ****         COL3_Write(1);
 242              		.loc 1 103 0
 243 00d8 0120     		movs	r0, #1
 244 00da FFF7FEFF 		bl	keyboard_KeyboardCol3_Write
 245              	.LVL32:
 104:Generated_Source\PSoC5/keyboard_keyboard.c ****         return('4');
 246              		.loc 1 104 0
 247 00de 3420     		movs	r0, #52
 248 00e0 08BD     		pop	{r3, pc}
 249              	.L16:
 105:Generated_Source\PSoC5/keyboard_keyboard.c ****     }
 106:Generated_Source\PSoC5/keyboard_keyboard.c ****     if (!ROW3_Read()) {
 250              		.loc 1 106 0
 251 00e2 FFF7FEFF 		bl	keyboard_KeyboardRow3_Read
 252              	.LVL33:
 253 00e6 20B9     		cbnz	r0, .L17
 107:Generated_Source\PSoC5/keyboard_keyboard.c ****         COL3_Write(1);
 254              		.loc 1 107 0
 255 00e8 0120     		movs	r0, #1
 256 00ea FFF7FEFF 		bl	keyboard_KeyboardCol3_Write
 257              	.LVL34:
 108:Generated_Source\PSoC5/keyboard_keyboard.c ****         return('1');
 258              		.loc 1 108 0
 259 00ee 3120     		movs	r0, #49
 260 00f0 08BD     		pop	{r3, pc}
 261              	.L17:
 109:Generated_Source\PSoC5/keyboard_keyboard.c ****     }
 110:Generated_Source\PSoC5/keyboard_keyboard.c ****     COL3_Write(1);
 262              		.loc 1 110 0
 263 00f2 0120     		movs	r0, #1
 264 00f4 FFF7FEFF 		bl	keyboard_KeyboardCol3_Write
 265              	.LVL35:
 111:Generated_Source\PSoC5/keyboard_keyboard.c ****     
 112:Generated_Source\PSoC5/keyboard_keyboard.c ****     return('z');
 266              		.loc 1 112 0
 267 00f8 7A20     		movs	r0, #122
 113:Generated_Source\PSoC5/keyboard_keyboard.c **** }
 268              		.loc 1 113 0
 269 00fa 08BD     		pop	{r3, pc}
 270              		.cfi_endproc
 271              	.LFE2:
 272              		.size	keyboard_Scan, .-keyboard_Scan
 273              		.text
 274              	.Letext0:
 275              		.file 2 "d:\\cypress\\psoc creator\\4.4\\psoc creator\\import\\gnu\\arm\\5.4.1\\arm-none-eabi\\inc
 276              		.file 3 "d:\\cypress\\psoc creator\\4.4\\psoc creator\\import\\gnu\\arm\\5.4.1\\arm-none-eabi\\inc
 277              		.file 4 "Generated_Source\\PSoC5\\keyboard_KeyboardCol1.h"
 278              		.file 5 "Generated_Source\\PSoC5\\keyboard_KeyboardCol2.h"
 279              		.file 6 "Generated_Source\\PSoC5\\keyboard_KeyboardCol3.h"
 280              		.file 7 "Generated_Source\\PSoC5\\CyLib.h"
 281              		.file 8 "Generated_Source\\PSoC5\\keyboard_KeyboardRow0.h"
 282              		.file 9 "Generated_Source\\PSoC5\\keyboard_KeyboardRow1.h"
 283              		.file 10 "Generated_Source\\PSoC5\\keyboard_KeyboardRow2.h"
 284              		.file 11 "Generated_Source\\PSoC5\\keyboard_KeyboardRow3.h"