ARM GAS  C:\Users\nicol\AppData\Local\Temp\ccaMxdsr.s 			page 1


   1              		.syntax unified
   2              		.cpu cortex-m3
   3              		.fpu softvfp
   4              		.eabi_attribute 20, 1
   5              		.eabi_attribute 21, 1
   6              		.eabi_attribute 23, 3
   7              		.eabi_attribute 24, 1
   8              		.eabi_attribute 25, 1
   9              		.eabi_attribute 26, 1
  10              		.eabi_attribute 30, 1
  11              		.eabi_attribute 34, 1
  12              		.eabi_attribute 18, 4
  13              		.thumb
  14              		.syntax unified
  15              		.file	"main.c"
  16              		.text
  17              	.Ltext0:
  18              		.cfi_sections	.debug_frame
  19              		.section	.text.handler,"ax",%progbits
  20              		.align	2
  21              		.global	handler
  22              		.thumb
  23              		.thumb_func
  24              		.type	handler, %function
  25              	handler:
  26              	.LFB63:
  27              		.file 1 "main.c"
   1:main.c        **** /* ========================================
   2:main.c        ****  *
   3:main.c        ****  * Copyright YOUR COMPANY, THE YEAR
   4:main.c        ****  * All Rights Reserved
   5:main.c        ****  * UNPUBLISHED, LICENSED SOFTWARE.
   6:main.c        ****  *
   7:main.c        ****  * CONFIDENTIAL AND PROPRIETARY INFORMATION
   8:main.c        ****  * WHICH IS THE PROPERTY OF your company.
   9:main.c        ****  *
  10:main.c        ****  * ========================================
  11:main.c        **** */
  12:main.c        **** #include "project.h"
  13:main.c        **** 
  14:main.c        **** // Task prototypes
  15:main.c        **** void        adc_task();
  16:main.c        **** void        lcd_task(); 
  17:main.c        **** void        led_task(); 
  18:main.c        **** void        event_sw1_task();
  19:main.c        **** 
  20:main.c        **** uint8 scheduler[6][3] = {
  21:main.c        ****     {1,2,3},
  22:main.c        ****     {1,0,0},
  23:main.c        ****     {1,2,0},
  24:main.c        ****     {1,0,3},
  25:main.c        ****     {1,2,0},
  26:main.c        ****     {1,0,0}
  27:main.c        **** };
  28:main.c        **** 
  29:main.c        **** uint8 counter = 0;
  30:main.c        **** 
ARM GAS  C:\Users\nicol\AppData\Local\Temp\ccaMxdsr.s 			page 2


  31:main.c        **** uint8 flags[] = {0,0,0};
  32:main.c        **** 
  33:main.c        **** int c = 0;
  34:main.c        **** 
  35:main.c        **** CY_ISR(handler){
  28              		.loc 1 35 0
  29              		.cfi_startproc
  30              		@ args = 0, pretend = 0, frame = 0
  31              		@ frame_needed = 0, uses_anonymous_args = 0
  32 0000 08B5     		push	{r3, lr}
  33              		.cfi_def_cfa_offset 8
  34              		.cfi_offset 3, -8
  35              		.cfi_offset 14, -4
  36:main.c        ****     
  37:main.c        ****     
  38:main.c        ****     
  39:main.c        ****     
  40:main.c        ****     counter = (counter+1) %6;
  36              		.loc 1 40 0
  37 0002 1749     		ldr	r1, .L7
  38 0004 0B78     		ldrb	r3, [r1]	@ zero_extendqisi2
  39 0006 0133     		adds	r3, r3, #1
  40 0008 164A     		ldr	r2, .L7+4
  41 000a 82FB0302 		smull	r0, r2, r2, r3
  42 000e A2EBE372 		sub	r2, r2, r3, asr #31
  43 0012 02EB4202 		add	r2, r2, r2, lsl #1
  44 0016 5000     		lsls	r0, r2, #1
  45 0018 1A1A     		subs	r2, r3, r0
  46 001a D2B2     		uxtb	r2, r2
  47 001c 0A70     		strb	r2, [r1]
  48              	.LVL0:
  49              	.LBB2:
  41:main.c        ****     
  42:main.c        ****     
  43:main.c        ****     for(uint8 i = 0; i < 3; i++){
  50              		.loc 1 43 0
  51 001e 0023     		movs	r3, #0
  52 0020 0BE0     		b	.L2
  53              	.LVL1:
  54              	.L3:
  55              	.LBB3:
  44:main.c        ****         uint8 value = scheduler[counter][i];
  56              		.loc 1 44 0 discriminator 3
  57 0022 02EB4201 		add	r1, r2, r2, lsl #1
  58 0026 1048     		ldr	r0, .L7+8
  59 0028 0144     		add	r1, r1, r0
  60 002a C95C     		ldrb	r1, [r1, r3]	@ zero_extendqisi2
  61              	.LVL2:
  45:main.c        ****         flags[value-1] = 1;
  62              		.loc 1 45 0 discriminator 3
  63 002c 0139     		subs	r1, r1, #1
  64              	.LVL3:
  65 002e 0C48     		ldr	r0, .L7
  66 0030 0144     		add	r1, r1, r0
  67              	.LVL4:
  68 0032 0120     		movs	r0, #1
  69 0034 0871     		strb	r0, [r1, #4]
ARM GAS  C:\Users\nicol\AppData\Local\Temp\ccaMxdsr.s 			page 3


  70              	.LBE3:
  43:main.c        ****         uint8 value = scheduler[counter][i];
  71              		.loc 1 43 0 discriminator 3
  72 0036 0344     		add	r3, r3, r0
  73              	.LVL5:
  74 0038 DBB2     		uxtb	r3, r3
  75              	.LVL6:
  76              	.L2:
  43:main.c        ****         uint8 value = scheduler[counter][i];
  77              		.loc 1 43 0 is_stmt 0 discriminator 1
  78 003a 022B     		cmp	r3, #2
  79 003c F1D9     		bls	.L3
  80              	.LBE2:
  46:main.c        ****     }
  47:main.c        ****     
  48:main.c        ****     if(c) c--;
  81              		.loc 1 48 0 is_stmt 1
  82 003e 084B     		ldr	r3, .L7
  83              	.LVL7:
  84 0040 9B68     		ldr	r3, [r3, #8]
  85 0042 1BB1     		cbz	r3, .L4
  86              		.loc 1 48 0 is_stmt 0 discriminator 1
  87 0044 013B     		subs	r3, r3, #1
  88 0046 064A     		ldr	r2, .L7
  89 0048 9360     		str	r3, [r2, #8]
  90 004a 02E0     		b	.L5
  91              	.L4:
  49:main.c        ****     else c++;
  92              		.loc 1 49 0 is_stmt 1
  93 004c 0133     		adds	r3, r3, #1
  94 004e 044A     		ldr	r2, .L7
  95 0050 9360     		str	r3, [r2, #8]
  96              	.L5:
  50:main.c        ****     
  51:main.c        ****     GPIOJ12_Write(c);
  97              		.loc 1 51 0
  98 0052 034B     		ldr	r3, .L7
  99 0054 187A     		ldrb	r0, [r3, #8]	@ zero_extendqisi2
 100 0056 FFF7FEFF 		bl	GPIOJ12_Write
 101              	.LVL8:
  52:main.c        ****     
  53:main.c        ****     
  54:main.c        ****     Timer_ReadStatusRegister();
 102              		.loc 1 54 0
 103 005a FFF7FEFF 		bl	Timer_ReadStatusRegister
 104              	.LVL9:
 105 005e 08BD     		pop	{r3, pc}
 106              	.L8:
 107              		.align	2
 108              	.L7:
 109 0060 00000000 		.word	.LANCHOR0
 110 0064 ABAAAA2A 		.word	715827883
 111 0068 00000000 		.word	.LANCHOR1
 112              		.cfi_endproc
 113              	.LFE63:
 114              		.size	handler, .-handler
 115              		.section	.text.select_task,"ax",%progbits
ARM GAS  C:\Users\nicol\AppData\Local\Temp\ccaMxdsr.s 			page 4


 116              		.align	2
 117              		.global	select_task
 118              		.thumb
 119              		.thumb_func
 120              		.type	select_task, %function
 121              	select_task:
 122              	.LFB64:
  55:main.c        **** }
  56:main.c        **** 
  57:main.c        **** void select_task(uint8 nber){
 123              		.loc 1 57 0
 124              		.cfi_startproc
 125              		@ args = 0, pretend = 0, frame = 0
 126              		@ frame_needed = 0, uses_anonymous_args = 0
 127              		@ link register save eliminated.
 128              	.LVL10:
 129 0000 7047     		bx	lr
 130              		.cfi_endproc
 131              	.LFE64:
 132              		.size	select_task, .-select_task
 133 0002 00BF     		.section	.text.main,"ax",%progbits
 134              		.align	2
 135              		.global	main
 136              		.thumb
 137              		.thumb_func
 138              		.type	main, %function
 139              	main:
 140              	.LFB65:
  58:main.c        ****     switch(nber){
  59:main.c        ****         case 1: 
  60:main.c        ****             adc_task();
  61:main.c        ****             break;
  62:main.c        ****         default: 
  63:main.c        ****             break;
  64:main.c        ****     }
  65:main.c        **** }
  66:main.c        **** 
  67:main.c        **** int main(void)
  68:main.c        **** {
 141              		.loc 1 68 0
 142              		.cfi_startproc
 143              		@ args = 0, pretend = 0, frame = 0
 144              		@ frame_needed = 0, uses_anonymous_args = 0
 145              		.loc 1 68 0
 146 0000 08B5     		push	{r3, lr}
 147              		.cfi_def_cfa_offset 8
 148              		.cfi_offset 3, -8
 149              		.cfi_offset 14, -4
  69:main.c        ****     CyGlobalIntEnable; /* Enable global interrupts. */
 150              		.loc 1 69 0
 151              		.syntax unified
 152              	@ 69 "main.c" 1
 153 0002 62B6     		CPSIE   i
 154              	@ 0 "" 2
  70:main.c        **** 
  71:main.c        ****     /* Place your initialization/startup code here (e.g. MyInst_Start()) */
  72:main.c        **** 
ARM GAS  C:\Users\nicol\AppData\Local\Temp\ccaMxdsr.s 			page 5


  73:main.c        ****     isr_timer_StartEx(handler);
 155              		.loc 1 73 0
 156              		.thumb
 157              		.syntax unified
 158 0004 0948     		ldr	r0, .L16
 159 0006 FFF7FEFF 		bl	isr_timer_StartEx
 160              	.LVL11:
  74:main.c        ****     Timer_Start();
 161              		.loc 1 74 0
 162 000a FFF7FEFF 		bl	Timer_Start
 163              	.LVL12:
 164              	.L14:
 165              	.LBB4:
  75:main.c        ****     
  76:main.c        ****     for(;;)
  77:main.c        ****     {
  78:main.c        ****         /* Place your application code here. */
  79:main.c        ****         for(uint8 i = 0; i < 3; i++){
 166              		.loc 1 79 0
 167 000e 0023     		movs	r3, #0
 168 0010 09E0     		b	.L11
 169              	.LVL13:
 170              	.L13:
  80:main.c        ****             
  81:main.c        ****             if(flags[i]){
 171              		.loc 1 81 0
 172 0012 074A     		ldr	r2, .L16+4
 173 0014 1A44     		add	r2, r2, r3
 174 0016 1279     		ldrb	r2, [r2, #4]	@ zero_extendqisi2
 175 0018 1AB1     		cbz	r2, .L12
  82:main.c        ****                 select_task(i);
  83:main.c        ****                 flags[i] = 0;
 176              		.loc 1 83 0
 177 001a 054A     		ldr	r2, .L16+4
 178 001c 1A44     		add	r2, r2, r3
 179 001e 0021     		movs	r1, #0
 180 0020 1171     		strb	r1, [r2, #4]
 181              	.L12:
  79:main.c        ****             
 182              		.loc 1 79 0 discriminator 2
 183 0022 0133     		adds	r3, r3, #1
 184              	.LVL14:
 185 0024 DBB2     		uxtb	r3, r3
 186              	.LVL15:
 187              	.L11:
  79:main.c        ****             
 188              		.loc 1 79 0 is_stmt 0 discriminator 1
 189 0026 022B     		cmp	r3, #2
 190 0028 F3D9     		bls	.L13
 191 002a F0E7     		b	.L14
 192              	.L17:
 193              		.align	2
 194              	.L16:
 195 002c 00000000 		.word	handler
 196 0030 00000000 		.word	.LANCHOR0
 197              	.LBE4:
 198              		.cfi_endproc
ARM GAS  C:\Users\nicol\AppData\Local\Temp\ccaMxdsr.s 			page 6


 199              	.LFE65:
 200              		.size	main, .-main
 201              		.section	.text.adc_task,"ax",%progbits
 202              		.align	2
 203              		.global	adc_task
 204              		.thumb
 205              		.thumb_func
 206              		.type	adc_task, %function
 207              	adc_task:
 208              	.LFB66:
  84:main.c        ****             }
  85:main.c        ****             
  86:main.c        ****         }
  87:main.c        ****         
  88:main.c        ****     }
  89:main.c        **** }
  90:main.c        **** 
  91:main.c        **** void adc_task(){
 209              		.loc 1 91 0 is_stmt 1
 210              		.cfi_startproc
 211              		@ args = 0, pretend = 0, frame = 0
 212              		@ frame_needed = 0, uses_anonymous_args = 0
 213              		@ link register save eliminated.
 214 0000 7047     		bx	lr
 215              		.cfi_endproc
 216              	.LFE66:
 217              		.size	adc_task, .-adc_task
 218 0002 00BF     		.section	.text.led_task,"ax",%progbits
 219              		.align	2
 220              		.global	led_task
 221              		.thumb
 222              		.thumb_func
 223              		.type	led_task, %function
 224              	led_task:
 225              	.LFB67:
  92:main.c        ****     
  93:main.c        **** }
  94:main.c        **** 
  95:main.c        **** void led_task(){
 226              		.loc 1 95 0
 227              		.cfi_startproc
 228              		@ args = 0, pretend = 0, frame = 0
 229              		@ frame_needed = 0, uses_anonymous_args = 0
 230              		@ link register save eliminated.
 231 0000 7047     		bx	lr
 232              		.cfi_endproc
 233              	.LFE67:
 234              		.size	led_task, .-led_task
 235 0002 00BF     		.section	.text.lcd_task,"ax",%progbits
 236              		.align	2
 237              		.global	lcd_task
 238              		.thumb
 239              		.thumb_func
 240              		.type	lcd_task, %function
 241              	lcd_task:
 242              	.LFB68:
  96:main.c        **** }
ARM GAS  C:\Users\nicol\AppData\Local\Temp\ccaMxdsr.s 			page 7


  97:main.c        ****     
  98:main.c        **** void lcd_task(){
 243              		.loc 1 98 0
 244              		.cfi_startproc
 245              		@ args = 0, pretend = 0, frame = 0
 246              		@ frame_needed = 0, uses_anonymous_args = 0
 247              		@ link register save eliminated.
 248 0000 7047     		bx	lr
 249              		.cfi_endproc
 250              	.LFE68:
 251              		.size	lcd_task, .-lcd_task
 252 0002 00BF     		.section	.text.event_sw1_task,"ax",%progbits
 253              		.align	2
 254              		.global	event_sw1_task
 255              		.thumb
 256              		.thumb_func
 257              		.type	event_sw1_task, %function
 258              	event_sw1_task:
 259              	.LFB69:
  99:main.c        **** }
 100:main.c        **** 
 101:main.c        **** void event_sw1_task(){
 260              		.loc 1 101 0
 261              		.cfi_startproc
 262              		@ args = 0, pretend = 0, frame = 0
 263              		@ frame_needed = 0, uses_anonymous_args = 0
 264              		@ link register save eliminated.
 265 0000 7047     		bx	lr
 266              		.cfi_endproc
 267              	.LFE69:
 268              		.size	event_sw1_task, .-event_sw1_task
 269              		.global	c
 270              		.global	flags
 271              		.global	counter
 272              		.global	scheduler
 273 0002 00BF     		.data
 274              		.align	2
 275              		.set	.LANCHOR1,. + 0
 276              		.type	scheduler, %object
 277              		.size	scheduler, 18
 278              	scheduler:
 279 0000 01       		.byte	1
 280 0001 02       		.byte	2
 281 0002 03       		.byte	3
 282 0003 01       		.byte	1
 283 0004 00       		.byte	0
 284 0005 00       		.byte	0
 285 0006 01       		.byte	1
 286 0007 02       		.byte	2
 287 0008 00       		.byte	0
 288 0009 01       		.byte	1
 289 000a 00       		.byte	0
 290 000b 03       		.byte	3
 291 000c 01       		.byte	1
 292 000d 02       		.byte	2
 293 000e 00       		.byte	0
 294 000f 01       		.byte	1
ARM GAS  C:\Users\nicol\AppData\Local\Temp\ccaMxdsr.s 			page 8


 295 0010 00       		.byte	0
 296 0011 00       		.byte	0
 297              		.bss
 298              		.align	2
 299              		.set	.LANCHOR0,. + 0
 300              		.type	counter, %object
 301              		.size	counter, 1
 302              	counter:
 303 0000 00       		.space	1
 304 0001 000000   		.space	3
 305              		.type	flags, %object
 306              		.size	flags, 3
 307              	flags:
 308 0004 000000   		.space	3
 309 0007 00       		.space	1
 310              		.type	c, %object
 311              		.size	c, 4
 312              	c:
 313 0008 00000000 		.space	4
 314              		.text
 315              	.Letext0:
 316              		.file 2 "d:\\cypress\\psoc creator\\4.4\\psoc creator\\import\\gnu\\arm\\5.4.1\\arm-none-eabi\\inc
 317              		.file 3 "d:\\cypress\\psoc creator\\4.4\\psoc creator\\import\\gnu\\arm\\5.4.1\\arm-none-eabi\\inc
 318              		.file 4 "Generated_Source\\PSoC5/cytypes.h"
 319              		.file 5 "Generated_Source\\PSoC5/core_cm3.h"
 320              		.file 6 "Generated_Source\\PSoC5/GPIOJ12.h"
 321              		.file 7 "Generated_Source\\PSoC5/Timer.h"
 322              		.file 8 "Generated_Source\\PSoC5/isr_timer.h"