ARM GAS  C:\Users\nicol\AppData\Local\Temp\ccg0uy1B.s 			page 1


   1              		.syntax unified
   2              		.cpu cortex-m3
   3              		.fpu softvfp
   4              		.eabi_attribute 20, 1
   5              		.eabi_attribute 21, 1
   6              		.eabi_attribute 23, 3
   7              		.eabi_attribute 24, 1
   8              		.eabi_attribute 25, 1
   9              		.eabi_attribute 26, 1
  10              		.eabi_attribute 30, 1
  11              		.eabi_attribute 34, 1
  12              		.eabi_attribute 18, 4
  13              		.thumb
  14              		.syntax unified
  15              		.file	"main.c"
  16              		.text
  17              	.Ltext0:
  18              		.cfi_sections	.debug_frame
  19              		.section	.text.freeRTOSInit,"ax",%progbits
  20              		.align	2
  21              		.thumb
  22              		.thumb_func
  23              		.type	freeRTOSInit, %function
  24              	freeRTOSInit:
  25              	.LFB69:
  26              		.file 1 "main.c"
   1:main.c        **** /* ========================================
   2:main.c        ****  *
   3:main.c        ****  *              ELECH410 labs
   4:main.c        ****  *          FreeRTOS example code
   5:main.c        ****  * 
   6:main.c        ****  *                   2019
   7:main.c        ****  *
   8:main.c        ****  * ========================================
   9:main.c        **** */
  10:main.c        **** #include "project.h"
  11:main.c        **** 
  12:main.c        **** /* RTOS includes. */
  13:main.c        **** #include "FreeRTOS.h"
  14:main.c        **** #include "task.h"
  15:main.c        **** #include "timers.h"
  16:main.c        **** #include "queue.h"
  17:main.c        **** #include "semphr.h"
  18:main.c        **** 
  19:main.c        **** #define TASK_STACK_SIZE      (1024)
  20:main.c        **** 
  21:main.c        **** /* Task definitions */
  22:main.c        **** #define TASK1_NAME           ("Task 1")
  23:main.c        **** #define TASK2_NAME           ("Task 2")
  24:main.c        **** #define TASK3_NAME           ("Task 3")
  25:main.c        **** 
  26:main.c        **** #define TASK1_PRIORITY       (3)
  27:main.c        **** #define TASK2_PRIORITY       (4)
  28:main.c        **** #define TASK3_PRIORITY       (5)
  29:main.c        **** 
  30:main.c        **** #define TASK1_PERIOD         (10)
  31:main.c        **** #define TASK2_PERIOD         (50)
ARM GAS  C:\Users\nicol\AppData\Local\Temp\ccg0uy1B.s 			page 2


  32:main.c        **** #define TASK3_PERIOD         (100)
  33:main.c        **** 
  34:main.c        **** /* Task prototypes */
  35:main.c        **** void task1( void * );
  36:main.c        **** void task2( void * );
  37:main.c        **** void task3( void * );
  38:main.c        **** 
  39:main.c        **** /* Task handlers */
  40:main.c        **** TaskHandle_t task1Handler; 
  41:main.c        **** TaskHandle_t task2Handler; 
  42:main.c        **** TaskHandle_t task3Handler;
  43:main.c        **** 
  44:main.c        **** /* Timer handlers */
  45:main.c        **** TimerHandle_t timer1Handler;
  46:main.c        **** TimerHandle_t timer2Handler;
  47:main.c        **** TimerHandle_t timer3Handler;
  48:main.c        **** TimerHandle_t timer4Handler;
  49:main.c        **** 
  50:main.c        **** /* Timer callback prototype */
  51:main.c        **** void timer1Callback();
  52:main.c        **** void timer2Callback();
  53:main.c        **** void timer3Callback();
  54:main.c        **** void ledSwitchCallback();
  55:main.c        **** 
  56:main.c        **** /* Function prototypes */
  57:main.c        **** /*
  58:main.c        ****  * Installs the RTOS interrupt handlers.
  59:main.c        ****  */
  60:main.c        **** static void freeRTOSInit( void );
  61:main.c        **** 
  62:main.c        **** int main(void)
  63:main.c        **** {
  64:main.c        ****     /* Enable global interrupts. */
  65:main.c        ****     //CyGlobalIntEnable; 
  66:main.c        ****     
  67:main.c        ****     freeRTOSInit();
  68:main.c        ****     
  69:main.c        ****     /* Place your initialization/startup code here (e.g. MyInst_Start()) */
  70:main.c        ****     // ...
  71:main.c        ****     
  72:main.c        ****     // Create tasks
  73:main.c        ****     xTaskCreate( task1, TASK1_NAME, TASK_STACK_SIZE, NULL, TASK1_PRIORITY, &task1Handler );
  74:main.c        ****     xTaskCreate( task2, TASK2_NAME, TASK_STACK_SIZE, NULL, TASK2_PRIORITY, &task2Handler );
  75:main.c        ****     xTaskCreate( task3, TASK3_NAME, TASK_STACK_SIZE, NULL, TASK3_PRIORITY, &task3Handler );
  76:main.c        ****     
  77:main.c        ****     // Create software timers
  78:main.c        ****     timer1Handler = xTimerCreate("Timer1", TASK1_PERIOD, pdTRUE, NULL, timer1Callback);
  79:main.c        ****     timer2Handler = xTimerCreate("Timer2", TASK2_PERIOD, pdTRUE, NULL, timer2Callback);
  80:main.c        ****     timer3Handler = xTimerCreate("Timer3", TASK3_PERIOD, pdTRUE, NULL, timer3Callback);
  81:main.c        ****     timer4Handler = xTimerCreate("Timer4", (5000), pdTRUE, NULL, ledSwitchCallback);
  82:main.c        ****     
  83:main.c        ****     // Start the timers
  84:main.c        ****     xTimerStart( timer1Handler, 0 );
  85:main.c        ****     xTimerStart( timer2Handler, 0 );
  86:main.c        ****     xTimerStart( timer3Handler, 0 );
  87:main.c        ****     xTimerStart( timer4Handler, 0 );
  88:main.c        ****     
ARM GAS  C:\Users\nicol\AppData\Local\Temp\ccg0uy1B.s 			page 3


  89:main.c        ****     // Launch freeRTOS
  90:main.c        ****     vTaskStartScheduler();     
  91:main.c        ****     
  92:main.c        ****     for(;;)
  93:main.c        ****     {
  94:main.c        ****     }
  95:main.c        **** }
  96:main.c        **** 
  97:main.c        **** void freeRTOSInit( void )
  98:main.c        **** {
  27              		.loc 1 98 0
  28              		.cfi_startproc
  29              		@ args = 0, pretend = 0, frame = 0
  30              		@ frame_needed = 0, uses_anonymous_args = 0
  31              		@ link register save eliminated.
  99:main.c        **** /* Port layer functions that need to be copied into the vector table. */
 100:main.c        **** extern void xPortPendSVHandler( void );
 101:main.c        **** extern void xPortSysTickHandler( void );
 102:main.c        **** extern void vPortSVCHandler( void );
 103:main.c        **** extern cyisraddress CyRamVectors[];
 104:main.c        **** 
 105:main.c        **** 	/* Install the OS Interrupt Handlers. */
 106:main.c        **** 	CyRamVectors[ 11 ] = ( cyisraddress ) vPortSVCHandler;
  32              		.loc 1 106 0
  33 0000 034B     		ldr	r3, .L2
  34 0002 044A     		ldr	r2, .L2+4
  35 0004 DA62     		str	r2, [r3, #44]
 107:main.c        **** 	CyRamVectors[ 14 ] = ( cyisraddress ) xPortPendSVHandler;
  36              		.loc 1 107 0
  37 0006 044A     		ldr	r2, .L2+8
  38 0008 9A63     		str	r2, [r3, #56]
 108:main.c        **** 	CyRamVectors[ 15 ] = ( cyisraddress ) xPortSysTickHandler;
  39              		.loc 1 108 0
  40 000a 044A     		ldr	r2, .L2+12
  41 000c DA63     		str	r2, [r3, #60]
  42 000e 7047     		bx	lr
  43              	.L3:
  44              		.align	2
  45              	.L2:
  46 0010 00000000 		.word	CyRamVectors
  47 0014 00000000 		.word	vPortSVCHandler
  48 0018 00000000 		.word	xPortPendSVHandler
  49 001c 00000000 		.word	xPortSysTickHandler
  50              		.cfi_endproc
  51              	.LFE69:
  52              		.size	freeRTOSInit, .-freeRTOSInit
  53              		.section	.text.task1,"ax",%progbits
  54              		.align	2
  55              		.global	task1
  56              		.thumb
  57              		.thumb_func
  58              		.type	task1, %function
  59              	task1:
  60              	.LFB70:
 109:main.c        **** }
 110:main.c        **** 
 111:main.c        **** void task1( void *arg )
ARM GAS  C:\Users\nicol\AppData\Local\Temp\ccg0uy1B.s 			page 4


 112:main.c        **** {
  61              		.loc 1 112 0
  62              		.cfi_startproc
  63              		@ args = 0, pretend = 0, frame = 0
  64              		@ frame_needed = 0, uses_anonymous_args = 0
  65              	.LVL0:
  66 0000 10B5     		push	{r4, lr}
  67              		.cfi_def_cfa_offset 8
  68              		.cfi_offset 4, -8
  69              		.cfi_offset 14, -4
  70              	.LVL1:
  71              	.L7:
 113:main.c        ****     (void)arg;
 114:main.c        ****     
 115:main.c        ****     for(;;)
 116:main.c        ****     {
 117:main.c        ****         GPIOJ11_Write(1u);
  72              		.loc 1 117 0
  73 0002 0120     		movs	r0, #1
  74 0004 FFF7FEFF 		bl	GPIOJ11_Write
  75              	.LVL2:
  76              	.LBB2:
 118:main.c        **** 
 119:main.c        ****         for (int i=0; i<1000;i++){
  77              		.loc 1 119 0
  78 0008 0024     		movs	r4, #0
  79 000a 07E0     		b	.L5
  80              	.LVL3:
  81              	.L6:
 120:main.c        ****             GPIOJ11_Write(!GPIOJ11_Read());
  82              		.loc 1 120 0 discriminator 3
  83 000c FFF7FEFF 		bl	GPIOJ11_Read
  84              	.LVL4:
  85 0010 B0FA80F0 		clz	r0, r0
  86 0014 4009     		lsrs	r0, r0, #5
  87 0016 FFF7FEFF 		bl	GPIOJ11_Write
  88              	.LVL5:
 119:main.c        ****             GPIOJ11_Write(!GPIOJ11_Read());
  89              		.loc 1 119 0 discriminator 3
  90 001a 0134     		adds	r4, r4, #1
  91              	.LVL6:
  92              	.L5:
 119:main.c        ****             GPIOJ11_Write(!GPIOJ11_Read());
  93              		.loc 1 119 0 is_stmt 0 discriminator 1
  94 001c B4F57A7F 		cmp	r4, #1000
  95 0020 F4DB     		blt	.L6
  96              	.LBE2:
 121:main.c        ****         }
 122:main.c        **** 
 123:main.c        ****         GPIOJ11_Write(0);
  97              		.loc 1 123 0 is_stmt 1
  98 0022 0020     		movs	r0, #0
  99 0024 FFF7FEFF 		bl	GPIOJ11_Write
 100              	.LVL7:
 124:main.c        **** 
 125:main.c        ****         vTaskSuspend(task1Handler);
 101              		.loc 1 125 0
ARM GAS  C:\Users\nicol\AppData\Local\Temp\ccg0uy1B.s 			page 5


 102 0028 024B     		ldr	r3, .L9
 103 002a 1868     		ldr	r0, [r3]
 104 002c FFF7FEFF 		bl	vTaskSuspend
 105              	.LVL8:
 126:main.c        ****     }
 106              		.loc 1 126 0
 107 0030 E7E7     		b	.L7
 108              	.L10:
 109 0032 00BF     		.align	2
 110              	.L9:
 111 0034 00000000 		.word	task1Handler
 112              		.cfi_endproc
 113              	.LFE70:
 114              		.size	task1, .-task1
 115              		.section	.text.task2,"ax",%progbits
 116              		.align	2
 117              		.global	task2
 118              		.thumb
 119              		.thumb_func
 120              		.type	task2, %function
 121              	task2:
 122              	.LFB71:
 127:main.c        **** }
 128:main.c        **** 
 129:main.c        **** void task2( void *arg )
 130:main.c        **** {
 123              		.loc 1 130 0
 124              		.cfi_startproc
 125              		@ args = 0, pretend = 0, frame = 0
 126              		@ frame_needed = 0, uses_anonymous_args = 0
 127              	.LVL9:
 128 0000 10B5     		push	{r4, lr}
 129              		.cfi_def_cfa_offset 8
 130              		.cfi_offset 4, -8
 131              		.cfi_offset 14, -4
 132              	.LVL10:
 133              	.L14:
 131:main.c        ****     (void)arg;
 132:main.c        ****     
 133:main.c        ****     for(;;)
 134:main.c        ****     {
 135:main.c        ****         GPIOJ12_Write(1u);
 134              		.loc 1 135 0
 135 0002 0120     		movs	r0, #1
 136 0004 FFF7FEFF 		bl	GPIOJ12_Write
 137              	.LVL11:
 138              	.LBB3:
 136:main.c        ****         
 137:main.c        ****         for (int i=0; i<2000;i++){
 139              		.loc 1 137 0
 140 0008 0024     		movs	r4, #0
 141 000a 07E0     		b	.L12
 142              	.LVL12:
 143              	.L13:
 138:main.c        ****             GPIOJ12_Write(!GPIOJ12_Read());
 144              		.loc 1 138 0 discriminator 3
 145 000c FFF7FEFF 		bl	GPIOJ12_Read
ARM GAS  C:\Users\nicol\AppData\Local\Temp\ccg0uy1B.s 			page 6


 146              	.LVL13:
 147 0010 B0FA80F0 		clz	r0, r0
 148 0014 4009     		lsrs	r0, r0, #5
 149 0016 FFF7FEFF 		bl	GPIOJ12_Write
 150              	.LVL14:
 137:main.c        ****             GPIOJ12_Write(!GPIOJ12_Read());
 151              		.loc 1 137 0 discriminator 3
 152 001a 0134     		adds	r4, r4, #1
 153              	.LVL15:
 154              	.L12:
 137:main.c        ****             GPIOJ12_Write(!GPIOJ12_Read());
 155              		.loc 1 137 0 is_stmt 0 discriminator 1
 156 001c B4F5FA6F 		cmp	r4, #2000
 157 0020 F4DB     		blt	.L13
 158              	.LBE3:
 139:main.c        ****         }
 140:main.c        ****         
 141:main.c        ****         GPIOJ12_Write(0);
 159              		.loc 1 141 0 is_stmt 1
 160 0022 0020     		movs	r0, #0
 161 0024 FFF7FEFF 		bl	GPIOJ12_Write
 162              	.LVL16:
 142:main.c        ****         
 143:main.c        ****         vTaskSuspend(task2Handler);
 163              		.loc 1 143 0
 164 0028 024B     		ldr	r3, .L16
 165 002a 1868     		ldr	r0, [r3]
 166 002c FFF7FEFF 		bl	vTaskSuspend
 167              	.LVL17:
 144:main.c        ****     }
 168              		.loc 1 144 0
 169 0030 E7E7     		b	.L14
 170              	.L17:
 171 0032 00BF     		.align	2
 172              	.L16:
 173 0034 00000000 		.word	task2Handler
 174              		.cfi_endproc
 175              	.LFE71:
 176              		.size	task2, .-task2
 177              		.section	.text.task3,"ax",%progbits
 178              		.align	2
 179              		.global	task3
 180              		.thumb
 181              		.thumb_func
 182              		.type	task3, %function
 183              	task3:
 184              	.LFB72:
 145:main.c        **** }
 146:main.c        **** 
 147:main.c        **** void task3( void *arg )
 148:main.c        **** {
 185              		.loc 1 148 0
 186              		.cfi_startproc
 187              		@ args = 0, pretend = 0, frame = 0
 188              		@ frame_needed = 0, uses_anonymous_args = 0
 189              	.LVL18:
 190 0000 10B5     		push	{r4, lr}
ARM GAS  C:\Users\nicol\AppData\Local\Temp\ccg0uy1B.s 			page 7


 191              		.cfi_def_cfa_offset 8
 192              		.cfi_offset 4, -8
 193              		.cfi_offset 14, -4
 194              	.LVL19:
 195              	.L21:
 149:main.c        ****     (void)arg;
 150:main.c        ****     
 151:main.c        ****     for(;;)
 152:main.c        ****     {
 153:main.c        ****         GPIOJ13_Write(1u);
 196              		.loc 1 153 0
 197 0002 0120     		movs	r0, #1
 198 0004 FFF7FEFF 		bl	GPIOJ13_Write
 199              	.LVL20:
 200              	.LBB4:
 154:main.c        ****         
 155:main.c        ****         for (int i=0; i<5000;i++){
 201              		.loc 1 155 0
 202 0008 0024     		movs	r4, #0
 203 000a 07E0     		b	.L19
 204              	.LVL21:
 205              	.L20:
 156:main.c        ****             GPIOJ13_Write(!GPIOJ13_Read());
 206              		.loc 1 156 0 discriminator 3
 207 000c FFF7FEFF 		bl	GPIOJ13_Read
 208              	.LVL22:
 209 0010 B0FA80F0 		clz	r0, r0
 210 0014 4009     		lsrs	r0, r0, #5
 211 0016 FFF7FEFF 		bl	GPIOJ13_Write
 212              	.LVL23:
 155:main.c        ****             GPIOJ13_Write(!GPIOJ13_Read());
 213              		.loc 1 155 0 discriminator 3
 214 001a 0134     		adds	r4, r4, #1
 215              	.LVL24:
 216              	.L19:
 155:main.c        ****             GPIOJ13_Write(!GPIOJ13_Read());
 217              		.loc 1 155 0 is_stmt 0 discriminator 1
 218 001c 41F28733 		movw	r3, #4999
 219 0020 9C42     		cmp	r4, r3
 220 0022 F3DD     		ble	.L20
 221              	.LBE4:
 157:main.c        ****         }
 158:main.c        **** 
 159:main.c        ****         GPIOJ13_Write(0);
 222              		.loc 1 159 0 is_stmt 1
 223 0024 0020     		movs	r0, #0
 224 0026 FFF7FEFF 		bl	GPIOJ13_Write
 225              	.LVL25:
 160:main.c        **** 
 161:main.c        ****         vTaskSuspend(task3Handler);
 226              		.loc 1 161 0
 227 002a 024B     		ldr	r3, .L23
 228 002c 1868     		ldr	r0, [r3]
 229 002e FFF7FEFF 		bl	vTaskSuspend
 230              	.LVL26:
 162:main.c        ****     }
 231              		.loc 1 162 0
ARM GAS  C:\Users\nicol\AppData\Local\Temp\ccg0uy1B.s 			page 8


 232 0032 E6E7     		b	.L21
 233              	.L24:
 234              		.align	2
 235              	.L23:
 236 0034 00000000 		.word	task3Handler
 237              		.cfi_endproc
 238              	.LFE72:
 239              		.size	task3, .-task3
 240              		.section	.text.timer1Callback,"ax",%progbits
 241              		.align	2
 242              		.global	timer1Callback
 243              		.thumb
 244              		.thumb_func
 245              		.type	timer1Callback, %function
 246              	timer1Callback:
 247              	.LFB73:
 163:main.c        **** }
 164:main.c        **** 
 165:main.c        **** void timer1Callback()
 166:main.c        **** {
 248              		.loc 1 166 0
 249              		.cfi_startproc
 250              		@ args = 0, pretend = 0, frame = 0
 251              		@ frame_needed = 0, uses_anonymous_args = 0
 252 0000 08B5     		push	{r3, lr}
 253              		.cfi_def_cfa_offset 8
 254              		.cfi_offset 3, -8
 255              		.cfi_offset 14, -4
 167:main.c        ****     vTaskResume(task1Handler);
 256              		.loc 1 167 0
 257 0002 024B     		ldr	r3, .L27
 258 0004 1868     		ldr	r0, [r3]
 259 0006 FFF7FEFF 		bl	vTaskResume
 260              	.LVL27:
 261 000a 08BD     		pop	{r3, pc}
 262              	.L28:
 263              		.align	2
 264              	.L27:
 265 000c 00000000 		.word	task1Handler
 266              		.cfi_endproc
 267              	.LFE73:
 268              		.size	timer1Callback, .-timer1Callback
 269              		.section	.text.timer2Callback,"ax",%progbits
 270              		.align	2
 271              		.global	timer2Callback
 272              		.thumb
 273              		.thumb_func
 274              		.type	timer2Callback, %function
 275              	timer2Callback:
 276              	.LFB74:
 168:main.c        **** }
 169:main.c        **** 
 170:main.c        **** void timer2Callback()
 171:main.c        **** {
 277              		.loc 1 171 0
 278              		.cfi_startproc
 279              		@ args = 0, pretend = 0, frame = 0
ARM GAS  C:\Users\nicol\AppData\Local\Temp\ccg0uy1B.s 			page 9


 280              		@ frame_needed = 0, uses_anonymous_args = 0
 281 0000 08B5     		push	{r3, lr}
 282              		.cfi_def_cfa_offset 8
 283              		.cfi_offset 3, -8
 284              		.cfi_offset 14, -4
 172:main.c        ****     vTaskResume(task2Handler);
 285              		.loc 1 172 0
 286 0002 024B     		ldr	r3, .L31
 287 0004 1868     		ldr	r0, [r3]
 288 0006 FFF7FEFF 		bl	vTaskResume
 289              	.LVL28:
 290 000a 08BD     		pop	{r3, pc}
 291              	.L32:
 292              		.align	2
 293              	.L31:
 294 000c 00000000 		.word	task2Handler
 295              		.cfi_endproc
 296              	.LFE74:
 297              		.size	timer2Callback, .-timer2Callback
 298              		.section	.text.timer3Callback,"ax",%progbits
 299              		.align	2
 300              		.global	timer3Callback
 301              		.thumb
 302              		.thumb_func
 303              		.type	timer3Callback, %function
 304              	timer3Callback:
 305              	.LFB75:
 173:main.c        **** }
 174:main.c        **** 
 175:main.c        **** void timer3Callback()
 176:main.c        **** {
 306              		.loc 1 176 0
 307              		.cfi_startproc
 308              		@ args = 0, pretend = 0, frame = 0
 309              		@ frame_needed = 0, uses_anonymous_args = 0
 310 0000 08B5     		push	{r3, lr}
 311              		.cfi_def_cfa_offset 8
 312              		.cfi_offset 3, -8
 313              		.cfi_offset 14, -4
 177:main.c        ****     vTaskResume(task3Handler);
 314              		.loc 1 177 0
 315 0002 024B     		ldr	r3, .L35
 316 0004 1868     		ldr	r0, [r3]
 317 0006 FFF7FEFF 		bl	vTaskResume
 318              	.LVL29:
 319 000a 08BD     		pop	{r3, pc}
 320              	.L36:
 321              		.align	2
 322              	.L35:
 323 000c 00000000 		.word	task3Handler
 324              		.cfi_endproc
 325              	.LFE75:
 326              		.size	timer3Callback, .-timer3Callback
 327              		.section	.text.ledSwitchCallback,"ax",%progbits
 328              		.align	2
 329              		.global	ledSwitchCallback
 330              		.thumb
ARM GAS  C:\Users\nicol\AppData\Local\Temp\ccg0uy1B.s 			page 10


 331              		.thumb_func
 332              		.type	ledSwitchCallback, %function
 333              	ledSwitchCallback:
 334              	.LFB76:
 178:main.c        **** }
 179:main.c        **** 
 180:main.c        **** void ledSwitchCallback(){
 335              		.loc 1 180 0
 336              		.cfi_startproc
 337              		@ args = 0, pretend = 0, frame = 0
 338              		@ frame_needed = 0, uses_anonymous_args = 0
 339 0000 08B5     		push	{r3, lr}
 340              		.cfi_def_cfa_offset 8
 341              		.cfi_offset 3, -8
 342              		.cfi_offset 14, -4
 181:main.c        ****     LED1_Write(!LED1_Read());
 343              		.loc 1 181 0
 344 0002 FFF7FEFF 		bl	LED1_Read
 345              	.LVL30:
 346 0006 B0FA80F0 		clz	r0, r0
 347 000a 4009     		lsrs	r0, r0, #5
 348 000c FFF7FEFF 		bl	LED1_Write
 349              	.LVL31:
 350 0010 08BD     		pop	{r3, pc}
 351              		.cfi_endproc
 352              	.LFE76:
 353              		.size	ledSwitchCallback, .-ledSwitchCallback
 354 0012 00BF     		.section	.text.main,"ax",%progbits
 355              		.align	2
 356              		.global	main
 357              		.thumb
 358              		.thumb_func
 359              		.type	main, %function
 360              	main:
 361              	.LFB68:
  63:main.c        ****     /* Enable global interrupts. */
 362              		.loc 1 63 0
 363              		.cfi_startproc
 364              		@ Volatile: function does not return.
 365              		@ args = 0, pretend = 0, frame = 0
 366              		@ frame_needed = 0, uses_anonymous_args = 0
 367 0000 80B5     		push	{r7, lr}
 368              		.cfi_def_cfa_offset 8
 369              		.cfi_offset 7, -8
 370              		.cfi_offset 14, -4
 371 0002 82B0     		sub	sp, sp, #8
 372              		.cfi_def_cfa_offset 16
  67:main.c        ****     
 373              		.loc 1 67 0
 374 0004 FFF7FEFF 		bl	freeRTOSInit
 375              	.LVL32:
  73:main.c        ****     xTaskCreate( task2, TASK2_NAME, TASK_STACK_SIZE, NULL, TASK2_PRIORITY, &task2Handler );
 376              		.loc 1 73 0
 377 0008 3B4B     		ldr	r3, .L42
 378 000a 0193     		str	r3, [sp, #4]
 379 000c 0323     		movs	r3, #3
 380 000e 0093     		str	r3, [sp]
ARM GAS  C:\Users\nicol\AppData\Local\Temp\ccg0uy1B.s 			page 11


 381 0010 0023     		movs	r3, #0
 382 0012 4FF48062 		mov	r2, #1024
 383 0016 3949     		ldr	r1, .L42+4
 384 0018 3948     		ldr	r0, .L42+8
 385 001a FFF7FEFF 		bl	xTaskCreate
 386              	.LVL33:
  74:main.c        ****     xTaskCreate( task3, TASK3_NAME, TASK_STACK_SIZE, NULL, TASK3_PRIORITY, &task3Handler );
 387              		.loc 1 74 0
 388 001e 394B     		ldr	r3, .L42+12
 389 0020 0193     		str	r3, [sp, #4]
 390 0022 0423     		movs	r3, #4
 391 0024 0093     		str	r3, [sp]
 392 0026 0023     		movs	r3, #0
 393 0028 4FF48062 		mov	r2, #1024
 394 002c 3649     		ldr	r1, .L42+16
 395 002e 3748     		ldr	r0, .L42+20
 396 0030 FFF7FEFF 		bl	xTaskCreate
 397              	.LVL34:
  75:main.c        ****     
 398              		.loc 1 75 0
 399 0034 364B     		ldr	r3, .L42+24
 400 0036 0193     		str	r3, [sp, #4]
 401 0038 0523     		movs	r3, #5
 402 003a 0093     		str	r3, [sp]
 403 003c 0023     		movs	r3, #0
 404 003e 4FF48062 		mov	r2, #1024
 405 0042 3449     		ldr	r1, .L42+28
 406 0044 3448     		ldr	r0, .L42+32
 407 0046 FFF7FEFF 		bl	xTaskCreate
 408              	.LVL35:
  78:main.c        ****     timer2Handler = xTimerCreate("Timer2", TASK2_PERIOD, pdTRUE, NULL, timer2Callback);
 409              		.loc 1 78 0
 410 004a 344B     		ldr	r3, .L42+36
 411 004c 0093     		str	r3, [sp]
 412 004e 0023     		movs	r3, #0
 413 0050 0122     		movs	r2, #1
 414 0052 0A21     		movs	r1, #10
 415 0054 3248     		ldr	r0, .L42+40
 416 0056 FFF7FEFF 		bl	xTimerCreate
 417              	.LVL36:
 418 005a 324C     		ldr	r4, .L42+44
 419 005c 2060     		str	r0, [r4]
  79:main.c        ****     timer3Handler = xTimerCreate("Timer3", TASK3_PERIOD, pdTRUE, NULL, timer3Callback);
 420              		.loc 1 79 0
 421 005e 324B     		ldr	r3, .L42+48
 422 0060 0093     		str	r3, [sp]
 423 0062 0023     		movs	r3, #0
 424 0064 0122     		movs	r2, #1
 425 0066 3221     		movs	r1, #50
 426 0068 3048     		ldr	r0, .L42+52
 427 006a FFF7FEFF 		bl	xTimerCreate
 428              	.LVL37:
 429 006e 304F     		ldr	r7, .L42+56
 430 0070 3860     		str	r0, [r7]
  80:main.c        ****     timer4Handler = xTimerCreate("Timer4", (5000), pdTRUE, NULL, ledSwitchCallback);
 431              		.loc 1 80 0
 432 0072 304B     		ldr	r3, .L42+60
ARM GAS  C:\Users\nicol\AppData\Local\Temp\ccg0uy1B.s 			page 12


 433 0074 0093     		str	r3, [sp]
 434 0076 0023     		movs	r3, #0
 435 0078 0122     		movs	r2, #1
 436 007a 6421     		movs	r1, #100
 437 007c 2E48     		ldr	r0, .L42+64
 438 007e FFF7FEFF 		bl	xTimerCreate
 439              	.LVL38:
 440 0082 2E4E     		ldr	r6, .L42+68
 441 0084 3060     		str	r0, [r6]
  81:main.c        ****     
 442              		.loc 1 81 0
 443 0086 2E4B     		ldr	r3, .L42+72
 444 0088 0093     		str	r3, [sp]
 445 008a 0023     		movs	r3, #0
 446 008c 0122     		movs	r2, #1
 447 008e 41F28831 		movw	r1, #5000
 448 0092 2C48     		ldr	r0, .L42+76
 449 0094 FFF7FEFF 		bl	xTimerCreate
 450              	.LVL39:
 451 0098 2B4D     		ldr	r5, .L42+80
 452 009a 2860     		str	r0, [r5]
  84:main.c        ****     xTimerStart( timer2Handler, 0 );
 453              		.loc 1 84 0
 454 009c D4F80080 		ldr	r8, [r4]
 455 00a0 FFF7FEFF 		bl	xTaskGetTickCount
 456              	.LVL40:
 457 00a4 0024     		movs	r4, #0
 458 00a6 0094     		str	r4, [sp]
 459 00a8 2346     		mov	r3, r4
 460 00aa 0246     		mov	r2, r0
 461 00ac 0121     		movs	r1, #1
 462 00ae 4046     		mov	r0, r8
 463 00b0 FFF7FEFF 		bl	xTimerGenericCommand
 464              	.LVL41:
  85:main.c        ****     xTimerStart( timer3Handler, 0 );
 465              		.loc 1 85 0
 466 00b4 3F68     		ldr	r7, [r7]
 467 00b6 FFF7FEFF 		bl	xTaskGetTickCount
 468              	.LVL42:
 469 00ba 0094     		str	r4, [sp]
 470 00bc 2346     		mov	r3, r4
 471 00be 0246     		mov	r2, r0
 472 00c0 0121     		movs	r1, #1
 473 00c2 3846     		mov	r0, r7
 474 00c4 FFF7FEFF 		bl	xTimerGenericCommand
 475              	.LVL43:
  86:main.c        ****     xTimerStart( timer4Handler, 0 );
 476              		.loc 1 86 0
 477 00c8 3668     		ldr	r6, [r6]
 478 00ca FFF7FEFF 		bl	xTaskGetTickCount
 479              	.LVL44:
 480 00ce 0094     		str	r4, [sp]
 481 00d0 2346     		mov	r3, r4
 482 00d2 0246     		mov	r2, r0
 483 00d4 0121     		movs	r1, #1
 484 00d6 3046     		mov	r0, r6
 485 00d8 FFF7FEFF 		bl	xTimerGenericCommand
ARM GAS  C:\Users\nicol\AppData\Local\Temp\ccg0uy1B.s 			page 13


 486              	.LVL45:
  87:main.c        ****     
 487              		.loc 1 87 0
 488 00dc 2D68     		ldr	r5, [r5]
 489 00de FFF7FEFF 		bl	xTaskGetTickCount
 490              	.LVL46:
 491 00e2 0094     		str	r4, [sp]
 492 00e4 2346     		mov	r3, r4
 493 00e6 0246     		mov	r2, r0
 494 00e8 0121     		movs	r1, #1
 495 00ea 2846     		mov	r0, r5
 496 00ec FFF7FEFF 		bl	xTimerGenericCommand
 497              	.LVL47:
  90:main.c        ****     
 498              		.loc 1 90 0
 499 00f0 FFF7FEFF 		bl	vTaskStartScheduler
 500              	.LVL48:
 501              	.L40:
 502 00f4 FEE7     		b	.L40
 503              	.L43:
 504 00f6 00BF     		.align	2
 505              	.L42:
 506 00f8 00000000 		.word	task1Handler
 507 00fc 00000000 		.word	.LC0
 508 0100 00000000 		.word	task1
 509 0104 00000000 		.word	task2Handler
 510 0108 08000000 		.word	.LC1
 511 010c 00000000 		.word	task2
 512 0110 00000000 		.word	task3Handler
 513 0114 10000000 		.word	.LC2
 514 0118 00000000 		.word	task3
 515 011c 00000000 		.word	timer1Callback
 516 0120 18000000 		.word	.LC3
 517 0124 00000000 		.word	timer1Handler
 518 0128 00000000 		.word	timer2Callback
 519 012c 20000000 		.word	.LC4
 520 0130 00000000 		.word	timer2Handler
 521 0134 00000000 		.word	timer3Callback
 522 0138 28000000 		.word	.LC5
 523 013c 00000000 		.word	timer3Handler
 524 0140 00000000 		.word	ledSwitchCallback
 525 0144 30000000 		.word	.LC6
 526 0148 00000000 		.word	timer4Handler
 527              		.cfi_endproc
 528              	.LFE68:
 529              		.size	main, .-main
 530              		.comm	timer4Handler,4,4
 531              		.comm	timer3Handler,4,4
 532              		.comm	timer2Handler,4,4
 533              		.comm	timer1Handler,4,4
 534              		.comm	task3Handler,4,4
 535              		.comm	task2Handler,4,4
 536              		.comm	task1Handler,4,4
 537              		.section	.rodata.str1.4,"aMS",%progbits,1
 538              		.align	2
 539              	.LC0:
 540 0000 5461736B 		.ascii	"Task 1\000"
ARM GAS  C:\Users\nicol\AppData\Local\Temp\ccg0uy1B.s 			page 14


 540      203100
 541 0007 00       		.space	1
 542              	.LC1:
 543 0008 5461736B 		.ascii	"Task 2\000"
 543      203200
 544 000f 00       		.space	1
 545              	.LC2:
 546 0010 5461736B 		.ascii	"Task 3\000"
 546      203300
 547 0017 00       		.space	1
 548              	.LC3:
 549 0018 54696D65 		.ascii	"Timer1\000"
 549      723100
 550 001f 00       		.space	1
 551              	.LC4:
 552 0020 54696D65 		.ascii	"Timer2\000"
 552      723200
 553 0027 00       		.space	1
 554              	.LC5:
 555 0028 54696D65 		.ascii	"Timer3\000"
 555      723300
 556 002f 00       		.space	1
 557              	.LC6:
 558 0030 54696D65 		.ascii	"Timer4\000"
 558      723400
 559              		.text
 560              	.Letext0:
 561              		.file 2 "d:\\cypress\\psoc creator\\4.4\\psoc creator\\import\\gnu\\arm\\5.4.1\\arm-none-eabi\\inc
 562              		.file 3 "d:\\cypress\\psoc creator\\4.4\\psoc creator\\import\\gnu\\arm\\5.4.1\\arm-none-eabi\\inc
 563              		.file 4 "Generated_Source\\PSoC5/cytypes.h"
 564              		.file 5 ".\\FreeRTOS\\include/portmacro.h"
 565              		.file 6 ".\\FreeRTOS\\include/task.h"
 566              		.file 7 ".\\FreeRTOS\\include/timers.h"
 567              		.file 8 "Generated_Source\\PSoC5/core_cm3.h"
 568              		.file 9 "Generated_Source\\PSoC5/GPIOJ11.h"
 569              		.file 10 "Generated_Source\\PSoC5/GPIOJ12.h"
 570              		.file 11 "Generated_Source\\PSoC5/GPIOJ13.h"
 571              		.file 12 "Generated_Source\\PSoC5/LED1.h"