ARM GAS  C:\Users\nicol\AppData\Local\Temp\ccyg5tyx.s 			page 1


   1              		.syntax unified
   2              		.cpu cortex-m3
   3              		.fpu softvfp
   4              		.eabi_attribute 20, 1
   5              		.eabi_attribute 21, 1
   6              		.eabi_attribute 23, 3
   7              		.eabi_attribute 24, 1
   8              		.eabi_attribute 25, 1
   9              		.eabi_attribute 26, 1
  10              		.eabi_attribute 30, 1
  11              		.eabi_attribute 34, 1
  12              		.eabi_attribute 18, 4
  13              		.thumb
  14              		.syntax unified
  15              		.file	"main.c"
  16              		.text
  17              	.Ltext0:
  18              		.cfi_sections	.debug_frame
  19              		.section	.text.freeRTOSInit,"ax",%progbits
  20              		.align	2
  21              		.thumb
  22              		.thumb_func
  23              		.type	freeRTOSInit, %function
  24              	freeRTOSInit:
  25              	.LFB69:
  26              		.file 1 "main.c"
   1:main.c        **** /* ========================================
   2:main.c        ****  *
   3:main.c        ****  *              ELECH410 labs
   4:main.c        ****  *          FreeRTOS example code
   5:main.c        ****  * 
   6:main.c        ****  *                   2019
   7:main.c        ****  *
   8:main.c        ****  * ========================================
   9:main.c        **** */
  10:main.c        **** #include "project.h"
  11:main.c        **** 
  12:main.c        **** /* RTOS includes. */
  13:main.c        **** #include "FreeRTOS.h"
  14:main.c        **** #include "task.h"
  15:main.c        **** #include "timers.h"
  16:main.c        **** #include "queue.h"
  17:main.c        **** #include "semphr.h"
  18:main.c        **** 
  19:main.c        **** #define TASK_STACK_SIZE      (1024)
  20:main.c        **** 
  21:main.c        **** /* Task definitions */
  22:main.c        **** #define TASK1_NAME           ("Task 1")
  23:main.c        **** #define TASK2_NAME           ("Task 2")
  24:main.c        **** 
  25:main.c        **** #define TASK1_PRIORITY       (4)
  26:main.c        **** #define TASK2_PRIORITY       (3)
  27:main.c        **** 
  28:main.c        **** #define TASK1_PERIOD         (1)
  29:main.c        **** #define TASK2_PERIOD         (100)
  30:main.c        **** 
  31:main.c        **** /* Task prototypes */
ARM GAS  C:\Users\nicol\AppData\Local\Temp\ccyg5tyx.s 			page 2


  32:main.c        **** void task1( void * );
  33:main.c        **** void task2( void * );
  34:main.c        **** 
  35:main.c        **** /* Task handlers */
  36:main.c        **** TaskHandle_t task1Handler; 
  37:main.c        **** TaskHandle_t task2Handler; 
  38:main.c        **** 
  39:main.c        **** /* Function prototypes */
  40:main.c        **** /*
  41:main.c        ****  * Installs the RTOS interrupt handlers.
  42:main.c        ****  */
  43:main.c        **** static void freeRTOSInit( void );
  44:main.c        **** void analyzer_tick();
  45:main.c        **** 
  46:main.c        **** int main(void)
  47:main.c        **** {
  48:main.c        ****     /* Enable global interrupts. */
  49:main.c        ****     //CyGlobalIntEnable; 
  50:main.c        ****     
  51:main.c        ****     freeRTOSInit();
  52:main.c        ****     
  53:main.c        ****     /* Place your initialization/startup code here (e.g. MyInst_Start()) */
  54:main.c        ****     // ...
  55:main.c        ****     TimerHandle_t timer = xTimerCreate("Timer",(1),pdTRUE,NULL,analyzer_tick);
  56:main.c        ****     xTimerStart(timer,0);
  57:main.c        ****     
  58:main.c        ****     // Create tasks
  59:main.c        ****     xTaskCreate( task1, TASK1_NAME, TASK_STACK_SIZE, NULL, TASK1_PRIORITY, &task1Handler );
  60:main.c        ****     xTaskCreate( task2, TASK2_NAME, TASK_STACK_SIZE, NULL, TASK2_PRIORITY, &task2Handler );
  61:main.c        ****     
  62:main.c        ****     // Launch freeRTOS
  63:main.c        ****     vTaskStartScheduler();     
  64:main.c        ****     
  65:main.c        ****     for(;;)
  66:main.c        ****     {
  67:main.c        ****     }
  68:main.c        **** }
  69:main.c        **** 
  70:main.c        **** void freeRTOSInit( void )
  71:main.c        **** {
  27              		.loc 1 71 0
  28              		.cfi_startproc
  29              		@ args = 0, pretend = 0, frame = 0
  30              		@ frame_needed = 0, uses_anonymous_args = 0
  31              		@ link register save eliminated.
  72:main.c        **** /* Port layer functions that need to be copied into the vector table. */
  73:main.c        **** extern void xPortPendSVHandler( void );
  74:main.c        **** extern void xPortSysTickHandler( void );
  75:main.c        **** extern void vPortSVCHandler( void );
  76:main.c        **** extern cyisraddress CyRamVectors[];
  77:main.c        **** 
  78:main.c        **** 	/* Install the OS Interrupt Handlers. */
  79:main.c        **** 	CyRamVectors[ 11 ] = ( cyisraddress ) vPortSVCHandler;
  32              		.loc 1 79 0
  33 0000 034B     		ldr	r3, .L2
  34 0002 044A     		ldr	r2, .L2+4
  35 0004 DA62     		str	r2, [r3, #44]
ARM GAS  C:\Users\nicol\AppData\Local\Temp\ccyg5tyx.s 			page 3


  80:main.c        **** 	CyRamVectors[ 14 ] = ( cyisraddress ) xPortPendSVHandler;
  36              		.loc 1 80 0
  37 0006 044A     		ldr	r2, .L2+8
  38 0008 9A63     		str	r2, [r3, #56]
  81:main.c        **** 	CyRamVectors[ 15 ] = ( cyisraddress ) xPortSysTickHandler;
  39              		.loc 1 81 0
  40 000a 044A     		ldr	r2, .L2+12
  41 000c DA63     		str	r2, [r3, #60]
  42 000e 7047     		bx	lr
  43              	.L3:
  44              		.align	2
  45              	.L2:
  46 0010 00000000 		.word	CyRamVectors
  47 0014 00000000 		.word	vPortSVCHandler
  48 0018 00000000 		.word	xPortPendSVHandler
  49 001c 00000000 		.word	xPortSysTickHandler
  50              		.cfi_endproc
  51              	.LFE69:
  52              		.size	freeRTOSInit, .-freeRTOSInit
  53              		.section	.text.task1,"ax",%progbits
  54              		.align	2
  55              		.global	task1
  56              		.thumb
  57              		.thumb_func
  58              		.type	task1, %function
  59              	task1:
  60              	.LFB70:
  82:main.c        **** }
  83:main.c        **** 
  84:main.c        **** void task1( void *arg )
  85:main.c        **** {
  61              		.loc 1 85 0
  62              		.cfi_startproc
  63              		@ args = 0, pretend = 0, frame = 0
  64              		@ frame_needed = 0, uses_anonymous_args = 0
  65              	.LVL0:
  66 0000 10B5     		push	{r4, lr}
  67              		.cfi_def_cfa_offset 8
  68              		.cfi_offset 4, -8
  69              		.cfi_offset 14, -4
  70              	.LVL1:
  71              	.L7:
  86:main.c        ****     (void)arg;
  87:main.c        ****     
  88:main.c        ****     for(;;)
  89:main.c        ****     {
  90:main.c        ****         GPIOJ11_Write(1u);
  72              		.loc 1 90 0
  73 0002 0120     		movs	r0, #1
  74 0004 FFF7FEFF 		bl	GPIOJ11_Write
  75              	.LVL2:
  76              	.LBB2:
  91:main.c        ****         
  92:main.c        ****         for (int i=0; i<10;i++){
  77              		.loc 1 92 0
  78 0008 0024     		movs	r4, #0
  79 000a 07E0     		b	.L5
ARM GAS  C:\Users\nicol\AppData\Local\Temp\ccyg5tyx.s 			page 4


  80              	.LVL3:
  81              	.L6:
  93:main.c        ****             GPIOJ11_Write(!GPIOJ11_Read());
  82              		.loc 1 93 0 discriminator 3
  83 000c FFF7FEFF 		bl	GPIOJ11_Read
  84              	.LVL4:
  85 0010 B0FA80F0 		clz	r0, r0
  86 0014 4009     		lsrs	r0, r0, #5
  87 0016 FFF7FEFF 		bl	GPIOJ11_Write
  88              	.LVL5:
  92:main.c        ****             GPIOJ11_Write(!GPIOJ11_Read());
  89              		.loc 1 92 0 discriminator 3
  90 001a 0134     		adds	r4, r4, #1
  91              	.LVL6:
  92              	.L5:
  92:main.c        ****             GPIOJ11_Write(!GPIOJ11_Read());
  93              		.loc 1 92 0 is_stmt 0 discriminator 1
  94 001c 092C     		cmp	r4, #9
  95 001e F5DD     		ble	.L6
  96              	.LBE2:
  94:main.c        ****         }
  95:main.c        ****         
  96:main.c        ****         GPIOJ11_Write(0);
  97              		.loc 1 96 0 is_stmt 1
  98 0020 0020     		movs	r0, #0
  99 0022 FFF7FEFF 		bl	GPIOJ11_Write
 100              	.LVL7:
  97:main.c        ****         
  98:main.c        ****         vTaskDelay(TASK1_PERIOD);
 101              		.loc 1 98 0
 102 0026 0120     		movs	r0, #1
 103 0028 FFF7FEFF 		bl	vTaskDelay
 104              	.LVL8:
  99:main.c        ****     }
 105              		.loc 1 99 0
 106 002c E9E7     		b	.L7
 107              		.cfi_endproc
 108              	.LFE70:
 109              		.size	task1, .-task1
 110 002e 00BF     		.section	.text.task2,"ax",%progbits
 111              		.align	2
 112              		.global	task2
 113              		.thumb
 114              		.thumb_func
 115              		.type	task2, %function
 116              	task2:
 117              	.LFB71:
 100:main.c        **** 
 101:main.c        **** }
 102:main.c        **** 
 103:main.c        **** void task2( void *arg )
 104:main.c        **** {
 118              		.loc 1 104 0
 119              		.cfi_startproc
 120              		@ args = 0, pretend = 0, frame = 0
 121              		@ frame_needed = 0, uses_anonymous_args = 0
 122              	.LVL9:
ARM GAS  C:\Users\nicol\AppData\Local\Temp\ccyg5tyx.s 			page 5


 123 0000 10B5     		push	{r4, lr}
 124              		.cfi_def_cfa_offset 8
 125              		.cfi_offset 4, -8
 126              		.cfi_offset 14, -4
 127              	.LVL10:
 128              	.L12:
 105:main.c        ****     (void)arg;
 106:main.c        ****     
 107:main.c        ****     for(;;)
 108:main.c        ****     {
 109:main.c        ****         GPIOJ12_Write(1u);
 129              		.loc 1 109 0
 130 0002 0120     		movs	r0, #1
 131 0004 FFF7FEFF 		bl	GPIOJ12_Write
 132              	.LVL11:
 133              	.LBB3:
 110:main.c        ****         
 111:main.c        ****         for (int i=0; i<20000;i++){
 134              		.loc 1 111 0
 135 0008 0024     		movs	r4, #0
 136 000a 07E0     		b	.L10
 137              	.LVL12:
 138              	.L11:
 112:main.c        ****             GPIOJ12_Write(!GPIOJ12_Read());
 139              		.loc 1 112 0 discriminator 3
 140 000c FFF7FEFF 		bl	GPIOJ12_Read
 141              	.LVL13:
 142 0010 B0FA80F0 		clz	r0, r0
 143 0014 4009     		lsrs	r0, r0, #5
 144 0016 FFF7FEFF 		bl	GPIOJ12_Write
 145              	.LVL14:
 111:main.c        ****             GPIOJ12_Write(!GPIOJ12_Read());
 146              		.loc 1 111 0 discriminator 3
 147 001a 0134     		adds	r4, r4, #1
 148              	.LVL15:
 149              	.L10:
 111:main.c        ****             GPIOJ12_Write(!GPIOJ12_Read());
 150              		.loc 1 111 0 is_stmt 0 discriminator 1
 151 001c 44F61F63 		movw	r3, #19999
 152 0020 9C42     		cmp	r4, r3
 153 0022 F3DD     		ble	.L11
 154              	.LBE3:
 113:main.c        ****         }
 114:main.c        ****         
 115:main.c        ****         GPIOJ12_Write(0);
 155              		.loc 1 115 0 is_stmt 1
 156 0024 0020     		movs	r0, #0
 157 0026 FFF7FEFF 		bl	GPIOJ12_Write
 158              	.LVL16:
 116:main.c        ****         
 117:main.c        ****         vTaskDelay(TASK2_PERIOD);
 159              		.loc 1 117 0
 160 002a 6420     		movs	r0, #100
 161 002c FFF7FEFF 		bl	vTaskDelay
 162              	.LVL17:
 118:main.c        ****     }
 163              		.loc 1 118 0
ARM GAS  C:\Users\nicol\AppData\Local\Temp\ccyg5tyx.s 			page 6


 164 0030 E7E7     		b	.L12
 165              		.cfi_endproc
 166              	.LFE71:
 167              		.size	task2, .-task2
 168 0032 00BF     		.section	.text.analyzer_tick,"ax",%progbits
 169              		.align	2
 170              		.global	analyzer_tick
 171              		.thumb
 172              		.thumb_func
 173              		.type	analyzer_tick, %function
 174              	analyzer_tick:
 175              	.LFB72:
 119:main.c        **** }
 120:main.c        **** 
 121:main.c        **** void analyzer_tick(void * args){
 176              		.loc 1 121 0
 177              		.cfi_startproc
 178              		@ args = 0, pretend = 0, frame = 0
 179              		@ frame_needed = 0, uses_anonymous_args = 0
 180              	.LVL18:
 181 0000 08B5     		push	{r3, lr}
 182              		.cfi_def_cfa_offset 8
 183              		.cfi_offset 3, -8
 184              		.cfi_offset 14, -4
 122:main.c        ****     (void)* args;
 123:main.c        ****     
 124:main.c        ****     GPIOJ14_Write(!GPIOJ14_Read());
 185              		.loc 1 124 0
 186 0002 FFF7FEFF 		bl	GPIOJ14_Read
 187              	.LVL19:
 188 0006 B0FA80F0 		clz	r0, r0
 189 000a 4009     		lsrs	r0, r0, #5
 190 000c FFF7FEFF 		bl	GPIOJ14_Write
 191              	.LVL20:
 192 0010 08BD     		pop	{r3, pc}
 193              		.cfi_endproc
 194              	.LFE72:
 195              		.size	analyzer_tick, .-analyzer_tick
 196 0012 00BF     		.section	.text.main,"ax",%progbits
 197              		.align	2
 198              		.global	main
 199              		.thumb
 200              		.thumb_func
 201              		.type	main, %function
 202              	main:
 203              	.LFB68:
  47:main.c        ****     /* Enable global interrupts. */
 204              		.loc 1 47 0
 205              		.cfi_startproc
 206              		@ args = 0, pretend = 0, frame = 0
 207              		@ frame_needed = 0, uses_anonymous_args = 0
 208 0000 30B5     		push	{r4, r5, lr}
 209              		.cfi_def_cfa_offset 12
 210              		.cfi_offset 4, -12
 211              		.cfi_offset 5, -8
 212              		.cfi_offset 14, -4
 213 0002 83B0     		sub	sp, sp, #12
ARM GAS  C:\Users\nicol\AppData\Local\Temp\ccyg5tyx.s 			page 7


 214              		.cfi_def_cfa_offset 24
  51:main.c        ****     
 215              		.loc 1 51 0
 216 0004 FFF7FEFF 		bl	freeRTOSInit
 217              	.LVL21:
  55:main.c        ****     xTimerStart(timer,0);
 218              		.loc 1 55 0
 219 0008 154B     		ldr	r3, .L19
 220 000a 0093     		str	r3, [sp]
 221 000c 0023     		movs	r3, #0
 222 000e 0122     		movs	r2, #1
 223 0010 1146     		mov	r1, r2
 224 0012 1448     		ldr	r0, .L19+4
 225 0014 FFF7FEFF 		bl	xTimerCreate
 226              	.LVL22:
 227 0018 0546     		mov	r5, r0
 228              	.LVL23:
  56:main.c        ****     
 229              		.loc 1 56 0
 230 001a FFF7FEFF 		bl	xTaskGetTickCount
 231              	.LVL24:
 232 001e 0024     		movs	r4, #0
 233 0020 0094     		str	r4, [sp]
 234 0022 2346     		mov	r3, r4
 235 0024 0246     		mov	r2, r0
 236 0026 0121     		movs	r1, #1
 237 0028 2846     		mov	r0, r5
 238 002a FFF7FEFF 		bl	xTimerGenericCommand
 239              	.LVL25:
  59:main.c        ****     xTaskCreate( task2, TASK2_NAME, TASK_STACK_SIZE, NULL, TASK2_PRIORITY, &task2Handler );
 240              		.loc 1 59 0
 241 002e 0E4B     		ldr	r3, .L19+8
 242 0030 0193     		str	r3, [sp, #4]
 243 0032 0423     		movs	r3, #4
 244 0034 0093     		str	r3, [sp]
 245 0036 2346     		mov	r3, r4
 246 0038 4FF48062 		mov	r2, #1024
 247 003c 0B49     		ldr	r1, .L19+12
 248 003e 0C48     		ldr	r0, .L19+16
 249 0040 FFF7FEFF 		bl	xTaskCreate
 250              	.LVL26:
  60:main.c        ****     
 251              		.loc 1 60 0
 252 0044 0B4B     		ldr	r3, .L19+20
 253 0046 0193     		str	r3, [sp, #4]
 254 0048 0323     		movs	r3, #3
 255 004a 0093     		str	r3, [sp]
 256 004c 2346     		mov	r3, r4
 257 004e 4FF48062 		mov	r2, #1024
 258 0052 0949     		ldr	r1, .L19+24
 259 0054 0948     		ldr	r0, .L19+28
 260 0056 FFF7FEFF 		bl	xTaskCreate
 261              	.LVL27:
  63:main.c        ****     
 262              		.loc 1 63 0
 263 005a FFF7FEFF 		bl	vTaskStartScheduler
 264              	.LVL28:
ARM GAS  C:\Users\nicol\AppData\Local\Temp\ccyg5tyx.s 			page 8


 265              	.L17:
 266 005e FEE7     		b	.L17
 267              	.L20:
 268              		.align	2
 269              	.L19:
 270 0060 00000000 		.word	analyzer_tick
 271 0064 00000000 		.word	.LC0
 272 0068 00000000 		.word	task1Handler
 273 006c 08000000 		.word	.LC1
 274 0070 00000000 		.word	task1
 275 0074 00000000 		.word	task2Handler
 276 0078 10000000 		.word	.LC2
 277 007c 00000000 		.word	task2
 278              		.cfi_endproc
 279              	.LFE68:
 280              		.size	main, .-main
 281              		.comm	task2Handler,4,4
 282              		.comm	task1Handler,4,4
 283              		.section	.rodata.str1.4,"aMS",%progbits,1
 284              		.align	2
 285              	.LC0:
 286 0000 54696D65 		.ascii	"Timer\000"
 286      7200
 287 0006 0000     		.space	2
 288              	.LC1:
 289 0008 5461736B 		.ascii	"Task 1\000"
 289      203100
 290 000f 00       		.space	1
 291              	.LC2:
 292 0010 5461736B 		.ascii	"Task 2\000"
 292      203200
 293              		.text
 294              	.Letext0:
 295              		.file 2 "d:\\cypress\\psoc creator\\4.4\\psoc creator\\import\\gnu\\arm\\5.4.1\\arm-none-eabi\\inc
 296              		.file 3 "d:\\cypress\\psoc creator\\4.4\\psoc creator\\import\\gnu\\arm\\5.4.1\\arm-none-eabi\\inc
 297              		.file 4 "Generated_Source\\PSoC5/cytypes.h"
 298              		.file 5 ".\\FreeRTOS\\include/portmacro.h"
 299              		.file 6 ".\\FreeRTOS\\include/task.h"
 300              		.file 7 ".\\FreeRTOS\\include/timers.h"
 301              		.file 8 "Generated_Source\\PSoC5/core_cm3.h"
 302              		.file 9 "Generated_Source\\PSoC5/GPIOJ11.h"
 303              		.file 10 "Generated_Source\\PSoC5/GPIOJ12.h"
 304              		.file 11 "Generated_Source\\PSoC5/GPIOJ14.h"